(dp0
I1
VAnnie
p1
sI2
VOlaf
p2
sI3
VGalio
p3
sI4
VTwistedFate
p4
sI5
VXinZhao
p5
sI6
VUrgot
p6
sI7
VLeblanc
p7
sI8
VVladimir
p8
sI9
VFiddleSticks
p9
sI10
VKayle
p10
sI11
VMasterYi
p11
sI12
VAlistar
p12
sI13
VRyze
p13
sI14
VSion
p14
sI15
VSivir
p15
sI16
VSoraka
p16
sI17
VTeemo
p17
sI18
VTristana
p18
sI19
VWarwick
p19
sI20
VNunu
p20
sI21
VMissFortune
p21
sI22
VAshe
p22
sI23
VTryndamere
p23
sI24
VJax
p24
sI25
VMorgana
p25
sI26
VZilean
p26
sI27
VSinged
p27
sI28
VEvelynn
p28
sI29
VTwitch
p29
sI30
VKarthus
p30
sI31
VChogath
p31
sI32
VAmumu
p32
sI33
VRammus
p33
sI34
VAnivia
p34
sI35
VShaco
p35
sI36
VDrMundo
p36
sI37
VSona
p37
sI38
VKassadin
p38
sI39
VIrelia
p39
sI40
VJanna
p40
sI41
VGangplank
p41
sI42
VCorki
p42
sI43
VKarma
p43
sI44
VTaric
p44
sI45
VVeigar
p45
sI48
VTrundle
p46
sI50
VSwain
p47
sI51
VCaitlyn
p48
sI53
VBlitzcrank
p49
sI54
VMalphite
p50
sI55
VKatarina
p51
sI56
VNocturne
p52
sI57
VMaokai
p53
sI58
VRenekton
p54
sI59
VJarvanIV
p55
sI60
VElise
p56
sI61
VOrianna
p57
sI62
VMonkeyKing
p58
sI63
VBrand
p59
sI64
VLeeSin
p60
sI67
VVayne
p61
sI68
VRumble
p62
sI69
VCassiopeia
p63
sI72
VSkarner
p64
sI74
VHeimerdinger
p65
sI75
VNasus
p66
sI76
VNidalee
p67
sI77
VUdyr
p68
sI78
VPoppy
p69
sI79
VGragas
p70
sI80
VPantheon
p71
sI81
VEzreal
p72
sI82
VMordekaiser
p73
sI83
VYorick
p74
sI84
VAkali
p75
sI85
VKennen
p76
sI86
VGaren
p77
sI89
VLeona
p78
sI90
VMalzahar
p79
sI91
VTalon
p80
sI92
VRiven
p81
sI96
VKogMaw
p82
sI98
VShen
p83
sI99
VLux
p84
sI101
VXerath
p85
sI102
VShyvana
p86
sI103
VAhri
p87
sI104
VGraves
p88
sI105
VFizz
p89
sI106
VVolibear
p90
sI107
VRengar
p91
sI110
VVarus
p92
sI111
VNautilus
p93
sI112
VViktor
p94
sI113
VSejuani
p95
sI114
VFiora
p96
sI115
VZiggs
p97
sI117
VLulu
p98
sI119
VDraven
p99
sI120
VHecarim
p100
sI121
VKhazix
p101
sI122
VDarius
p102
sI126
VJayce
p103
sI127
VLissandra
p104
sI131
VDiana
p105
sI133
VQuinn
p106
sI134
VSyndra
p107
sI143
VZyra
p108
sI150
VGnar
p109
sI154
VZac
p110
sI157
VYasuo
p111
sI161
VVelkoz
p112
sI201
VBraum
p113
sI222
VJinx
p114
sI236
VLucian
p115
sI238
VZed
p116
sI245
VEkko
p117
sI254
VVi
p118
sI266
VAatrox
p119
sI267
VNami
p120
sI268
VAzir
p121
sI412
VThresh
p122
sI421
VRekSai
p123
sI429
VKalista
p124
sI432
VBard
p125
s.