(lp0
(lp1
(dp2
S'opposingTeamName'
p3
VCarregados Pelo Maciota
p4
sS'gameId'
p5
I519869709
sS'result'
p6
I01
sa(lp7
(dp8
Vspell1Id
p9
I4
sVchampionId
p10
I117
sVparticipantId
p11
I1
sVrunes
p12
(lp13
(dp14
VruneId
p15
I5273
sVrank
p16
I9
sa(dp17
VruneId
p18
I5297
sVrank
p19
I9
sa(dp20
VruneId
p21
I5317
sVrank
p22
I9
sa(dp23
VruneId
p24
I5357
sVrank
p25
I3
sasVhighestAchievedSeasonTier
p26
VGOLD
p27
sVteamId
p28
I100
sVspell2Id
p29
I14
sVmasteries
p30
(lp31
(dp32
VmasteryId
p33
I4113
sVrank
p34
I4
sa(dp35
VmasteryId
p36
I4114
sVrank
p37
I1
sa(dp38
VmasteryId
p39
I4123
sVrank
p40
I3
sa(dp41
VmasteryId
p42
I4124
sVrank
p43
I1
sa(dp44
VmasteryId
p45
I4133
sVrank
p46
I1
sa(dp47
VmasteryId
p48
I4134
sVrank
p49
I3
sa(dp50
VmasteryId
p51
I4143
sVrank
p52
I2
sa(dp53
VmasteryId
p54
I4144
sVrank
p55
I1
sa(dp56
VmasteryId
p57
I4152
sVrank
p58
I3
sa(dp59
VmasteryId
p60
I4154
sVrank
p61
I1
sa(dp62
VmasteryId
p63
I4162
sVrank
p64
I1
sa(dp65
VmasteryId
p66
I4311
sVrank
p67
I1
sa(dp68
VmasteryId
p69
I4313
sVrank
p70
I3
sa(dp71
VmasteryId
p72
I4322
sVrank
p73
I3
sa(dp74
VmasteryId
p75
I4324
sVrank
p76
I1
sa(dp77
VmasteryId
p78
I4334
sVrank
p79
I1
sasVtimeline
p80
(dp81
Vlane
p82
VJUNGLE
p83
sVgoldPerMinDeltas
p84
(dp85
VzeroToTen
p86
F318.70000000000005
sVtenToTwenty
p87
F429.1
ssVcreepsPerMinDeltas
p88
(dp89
VzeroToTen
p90
F5.1
sVtenToTwenty
p91
F8.7
ssVxpPerMinDeltas
p92
(dp93
VzeroToTen
p94
F437.2
sVtenToTwenty
p95
F592.9
ssVrole
p96
VNONE
p97
sVdamageTakenPerMinDeltas
p98
(dp99
VzeroToTen
p100
F326.3
sVtenToTwenty
p101
F699.7
sssVstats
p102
(dp103
VneutralMinionsKilledTeamJungle
p104
I0
sVtotalPlayerScore
p105
I0
sVunrealKills
p106
I0
sVobjectivePlayerScore
p107
I0
sVtotalDamageDealt
p108
I105055
sVmagicDamageDealtToChampions
p109
I15594
sVlargestMultiKill
p110
I2
sVlargestKillingSpree
p111
I6
sVitem1
p112
I1056
sVquadraKills
p113
I0
sVmagicDamageTaken
p114
I8945
sVtowerKills
p115
I0
sVtotalTimeCrowdControlDealt
p116
I706
sVwardsKilled
p117
I0
sVfirstTowerAssist
p118
I00
sVwinner
p119
I01
sVfirstTowerKill
p120
I00
sVitem2
p121
I3158
sVitem3
p122
I3001
sVitem0
p123
I1056
sVfirstBloodAssist
p124
I00
sVitem6
p125
I0
sVwardsPlaced
p126
I0
sVitem4
p127
I3057
sVitem5
p128
I3090
sVminionsKilled
p129
I163
sVtripleKills
p130
I0
sVneutralMinionsKilledEnemyJungle
p131
I6
sVgoldEarned
p132
I10972
sVmagicDamageDealt
p133
I91148
sVkills
p134
I8
sVdoubleKills
p135
I1
sVfirstInhibitorKill
p136
I00
sVtrueDamageTaken
p137
I1275
sVfirstBloodKill
p138
I01
sVassists
p139
I9
sVdeaths
p140
I2
sVneutralMinionsKilled
p141
I6
sVcombatPlayerScore
p142
I0
sVvisionWardsBoughtInGame
p143
I0
sVphysicalDamageDealtToChampions
p144
I3003
sVgoldSpent
p145
I9190
sVtrueDamageDealt
p146
I756
sVtrueDamageDealtToChampions
p147
I756
sVchampLevel
p148
I15
sVpentaKills
p149
I0
sVfirstInhibitorAssist
p150
I00
sVtotalHeal
p151
I991
sVphysicalDamageDealt
p152
I13150
sVlargestCriticalStrike
p153
I0
sVsightWardsBoughtInGame
p154
I0
sVtotalDamageDealtToChampions
p155
I19354
sVtotalUnitsHealed
p156
I1
sVinhibitorKills
p157
I0
sVtotalScoreRank
p158
I0
sVtotalDamageTaken
p159
I17513
sVkillingSprees
p160
I1
sVphysicalDamageTaken
p161
I7292
ssa(dp162
Vspell1Id
p163
I4
sVchampionId
p164
I79
sVparticipantId
p165
I2
sVrunes
p166
(lp167
(dp168
VruneId
p169
I5245
sVrank
p170
I9
sa(dp171
VruneId
p172
I5277
sVrank
p173
I4
sa(dp174
VruneId
p175
I5289
sVrank
p176
I5
sa(dp177
VruneId
p178
I5317
sVrank
p179
I9
sa(dp180
VruneId
p181
I5337
sVrank
p182
I3
sasVhighestAchievedSeasonTier
p183
VGOLD
p184
sVteamId
p185
I100
sVspell2Id
p186
I11
sVmasteries
p187
(lp188
(dp189
VmasteryId
p190
I4111
sVrank
p191
I1
sa(dp192
VmasteryId
p193
I4113
sVrank
p194
I4
sa(dp195
VmasteryId
p196
I4121
sVrank
p197
I1
sa(dp198
VmasteryId
p199
I4122
sVrank
p200
I3
sa(dp201
VmasteryId
p202
I4131
sVrank
p203
I1
sa(dp204
VmasteryId
p205
I4132
sVrank
p206
I1
sa(dp207
VmasteryId
p208
I4134
sVrank
p209
I3
sa(dp210
VmasteryId
p211
I4141
sVrank
p212
I1
sa(dp213
VmasteryId
p214
I4142
sVrank
p215
I1
sa(dp216
VmasteryId
p217
I4144
sVrank
p218
I1
sa(dp219
VmasteryId
p220
I4152
sVrank
p221
I3
sa(dp222
VmasteryId
p223
I4162
sVrank
p224
I1
sa(dp225
VmasteryId
p226
I4211
sVrank
p227
I2
sa(dp228
VmasteryId
p229
I4214
sVrank
p230
I2
sa(dp231
VmasteryId
p232
I4222
sVrank
p233
I3
sa(dp234
VmasteryId
p235
I4224
sVrank
p236
I1
sa(dp237
VmasteryId
p238
I4232
sVrank
p239
I1
sasVtimeline
p240
(dp241
Vlane
p242
VJUNGLE
p243
sVgoldPerMinDeltas
p244
(dp245
VzeroToTen
p246
F244.5
sVtenToTwenty
p247
F457.4
ssVcreepsPerMinDeltas
p248
(dp249
VzeroToTen
p250
F0.3
sVtenToTwenty
p251
F1.5
ssVxpPerMinDeltas
p252
(dp253
VzeroToTen
p254
F307.5
sVtenToTwenty
p255
F538.4
ssVrole
p256
VNONE
p257
sVdamageTakenPerMinDeltas
p258
(dp259
VzeroToTen
p260
F716.7
sVtenToTwenty
p261
F1249.1
sssVstats
p262
(dp263
VneutralMinionsKilledTeamJungle
p264
I49
sVtotalPlayerScore
p265
I0
sVunrealKills
p266
I0
sVobjectivePlayerScore
p267
I0
sVtotalDamageDealt
p268
I101708
sVmagicDamageDealtToChampions
p269
I14899
sVlargestMultiKill
p270
I2
sVlargestKillingSpree
p271
I5
sVitem1
p272
I3065
sVquadraKills
p273
I0
sVmagicDamageTaken
p274
I6427
sVtowerKills
p275
I0
sVtotalTimeCrowdControlDealt
p276
I463
sVwardsKilled
p277
I0
sVfirstTowerAssist
p278
I00
sVwinner
p279
I01
sVfirstTowerKill
p280
I00
sVitem2
p281
I3024
sVitem3
p282
I0
sVitem0
p283
I3708
sVfirstBloodAssist
p284
I00
sVitem6
p285
I0
sVwardsPlaced
p286
I0
sVitem4
p287
I3020
sVitem5
p288
I1052
sVminionsKilled
p289
I22
sVtripleKills
p290
I0
sVneutralMinionsKilledEnemyJungle
p291
I11
sVgoldEarned
p292
I10072
sVmagicDamageDealt
p293
I71766
sVkills
p294
I8
sVdoubleKills
p295
I1
sVfirstInhibitorKill
p296
I00
sVtrueDamageTaken
p297
I1331
sVfirstBloodKill
p298
I00
sVassists
p299
I9
sVdeaths
p300
I6
sVneutralMinionsKilled
p301
I60
sVcombatPlayerScore
p302
I0
sVvisionWardsBoughtInGame
p303
I0
sVphysicalDamageDealtToChampions
p304
I3625
sVgoldSpent
p305
I8255
sVtrueDamageDealt
p306
I6874
sVtrueDamageDealtToChampions
p307
I744
sVchampLevel
p308
I14
sVpentaKills
p309
I0
sVfirstInhibitorAssist
p310
I00
sVtotalHeal
p311
I5431
sVphysicalDamageDealt
p312
I23068
sVlargestCriticalStrike
p313
I474
sVsightWardsBoughtInGame
p314
I0
sVtotalDamageDealtToChampions
p315
I19269
sVtotalUnitsHealed
p316
I1
sVinhibitorKills
p317
I0
sVtotalScoreRank
p318
I0
sVtotalDamageTaken
p319
I30939
sVkillingSprees
p320
I1
sVphysicalDamageTaken
p321
I23180
ssa(dp322
Vspell1Id
p323
I4
sVchampionId
p324
I150
sVparticipantId
p325
I3
sVrunes
p326
(lp327
(dp328
VruneId
p329
I5245
sVrank
p330
I9
sa(dp331
VruneId
p332
I5277
sVrank
p333
I4
sa(dp334
VruneId
p335
I5289
sVrank
p336
I5
sa(dp337
VruneId
p338
I5317
sVrank
p339
I9
sa(dp340
VruneId
p341
I5337
sVrank
p342
I3
sasVhighestAchievedSeasonTier
p343
VGOLD
p344
sVteamId
p345
I100
sVspell2Id
p346
I3
sVmasteries
p347
(lp348
(dp349
VmasteryId
p350
I4112
sVrank
p351
I4
sa(dp352
VmasteryId
p353
I4114
sVrank
p354
I1
sa(dp355
VmasteryId
p356
I4121
sVrank
p357
I1
sa(dp358
VmasteryId
p359
I4122
sVrank
p360
I3
sa(dp361
VmasteryId
p362
I4124
sVrank
p363
I1
sa(dp364
VmasteryId
p365
I4131
sVrank
p366
I1
sa(dp367
VmasteryId
p368
I4132
sVrank
p369
I1
sa(dp370
VmasteryId
p371
I4134
sVrank
p372
I3
sa(dp373
VmasteryId
p374
I4141
sVrank
p375
I1
sa(dp376
VmasteryId
p377
I4144
sVrank
p378
I1
sa(dp379
VmasteryId
p380
I4152
sVrank
p381
I3
sa(dp382
VmasteryId
p383
I4162
sVrank
p384
I1
sa(dp385
VmasteryId
p386
I4211
sVrank
p387
I2
sa(dp388
VmasteryId
p389
I4212
sVrank
p390
I2
sa(dp391
VmasteryId
p392
I4221
sVrank
p393
I1
sa(dp394
VmasteryId
p395
I4222
sVrank
p396
I3
sa(dp397
VmasteryId
p398
I4232
sVrank
p399
I1
sasVtimeline
p400
(dp401
Vlane
p402
VMIDDLE
p403
sVcsDiffPerMinDeltas
p404
(dp405
VzeroToTen
p406
F2.0
sVtenToTwenty
p407
F-0.8999999999999999
ssVgoldPerMinDeltas
p408
(dp409
VzeroToTen
p410
F252.6
sVtenToTwenty
p411
F360.9
ssVxpDiffPerMinDeltas
p412
(dp413
VzeroToTen
p414
F43.99999999999997
sVtenToTwenty
p415
F30.00000000000003
ssVcreepsPerMinDeltas
p416
(dp417
VzeroToTen
p418
F6.6
sVtenToTwenty
p419
F3.9
ssVxpPerMinDeltas
p420
(dp421
VzeroToTen
p422
F385.79999999999995
sVtenToTwenty
p423
F445.6
ssVrole
p424
VSOLO
p425
sVdamageTakenDiffPerMinDeltas
p426
(dp427
VzeroToTen
p428
F92.10000000000001
sVtenToTwenty
p429
F-17.900000000000034
ssVdamageTakenPerMinDeltas
p430
(dp431
VzeroToTen
p432
F566.4
sVtenToTwenty
p433
F1036.1
sssVstats
p434
(dp435
VneutralMinionsKilledTeamJungle
p436
I2
sVtotalPlayerScore
p437
I0
sVunrealKills
p438
I0
sVobjectivePlayerScore
p439
I0
sVtotalDamageDealt
p440
I87344
sVmagicDamageDealtToChampions
p441
I4010
sVlargestMultiKill
p442
I2
sVlargestKillingSpree
p443
I3
sVitem1
p444
I3143
sVquadraKills
p445
I0
sVmagicDamageTaken
p446
I9393
sVtowerKills
p447
I0
sVtotalTimeCrowdControlDealt
p448
I607
sVwardsKilled
p449
I0
sVfirstTowerAssist
p450
I01
sVwinner
p451
I01
sVfirstTowerKill
p452
I00
sVitem2
p453
I3111
sVitem3
p454
I3065
sVitem0
p455
I2003
sVfirstBloodAssist
p456
I00
sVitem6
p457
I0
sVwardsPlaced
p458
I0
sVitem4
p459
I3044
sVitem5
p460
I0
sVminionsKilled
p461
I138
sVtripleKills
p462
I0
sVneutralMinionsKilledEnemyJungle
p463
I4
sVgoldEarned
p464
I10370
sVmagicDamageDealt
p465
I9295
sVkills
p466
I5
sVdoubleKills
p467
I1
sVfirstInhibitorKill
p468
I00
sVtrueDamageTaken
p469
I2382
sVfirstBloodKill
p470
I00
sVassists
p471
I12
sVdeaths
p472
I6
sVneutralMinionsKilled
p473
I6
sVcombatPlayerScore
p474
I0
sVvisionWardsBoughtInGame
p475
I0
sVphysicalDamageDealtToChampions
p476
I23802
sVgoldSpent
p477
I8510
sVtrueDamageDealt
p478
I0
sVtrueDamageDealtToChampions
p479
I0
sVchampLevel
p480
I15
sVpentaKills
p481
I0
sVfirstInhibitorAssist
p482
I00
sVtotalHeal
p483
I1851
sVphysicalDamageDealt
p484
I78048
sVlargestCriticalStrike
p485
I452
sVsightWardsBoughtInGame
p486
I0
sVtotalDamageDealtToChampions
p487
I27812
sVtotalUnitsHealed
p488
I1
sVinhibitorKills
p489
I0
sVtotalScoreRank
p490
I0
sVtotalDamageTaken
p491
I24451
sVkillingSprees
p492
I2
sVphysicalDamageTaken
p493
I12675
ssaa(lp494
(I1
S'Nathan Space'
p495
tp496
a(I2
S'Alan Space'
p497
tp498
a(I3
S'Darlan Space'
p499
tp500
aaa(lp501
(dp502
g3
VBR0NZ0DIAS
p503
sg5
I519858125
sg6
I01
sa(lp504
(dp505
Vspell1Id
p506
I4
sVchampionId
p507
I8
sVparticipantId
p508
I4
sVrunes
p509
(lp510
(dp511
VruneId
p512
I5295
sVrank
p513
I9
sa(dp514
VruneId
p515
I5316
sVrank
p516
I9
sa(dp517
VruneId
p518
I5357
sVrank
p519
I3
sa(dp520
VruneId
p521
I5402
sVrank
p522
I9
sasVhighestAchievedSeasonTier
p523
VGOLD
p524
sVteamId
p525
I200
sVspell2Id
p526
I14
sVmasteries
p527
(lp528
(dp529
VmasteryId
p530
I4113
sVrank
p531
I3
sa(dp532
VmasteryId
p533
I4114
sVrank
p534
I1
sa(dp535
VmasteryId
p536
I4123
sVrank
p537
I3
sa(dp538
VmasteryId
p539
I4124
sVrank
p540
I1
sa(dp541
VmasteryId
p542
I4133
sVrank
p543
I1
sa(dp544
VmasteryId
p545
I4134
sVrank
p546
I3
sa(dp547
VmasteryId
p548
I4143
sVrank
p549
I3
sa(dp550
VmasteryId
p551
I4144
sVrank
p552
I1
sa(dp553
VmasteryId
p554
I4152
sVrank
p555
I3
sa(dp556
VmasteryId
p557
I4154
sVrank
p558
I1
sa(dp559
VmasteryId
p560
I4162
sVrank
p561
I1
sa(dp562
VmasteryId
p563
I4211
sVrank
p564
I2
sa(dp565
VmasteryId
p566
I4212
sVrank
p567
I2
sa(dp568
VmasteryId
p569
I4221
sVrank
p570
I1
sa(dp571
VmasteryId
p572
I4222
sVrank
p573
I3
sa(dp574
VmasteryId
p575
I4232
sVrank
p576
I1
sasVtimeline
p577
(dp578
Vlane
p579
VMIDDLE
p580
sVcsDiffPerMinDeltas
p581
(dp582
VzeroToTen
p583
F4.9
ssVgoldPerMinDeltas
p584
(dp585
VzeroToTen
p586
F219.7
ssVxpDiffPerMinDeltas
p587
(dp588
VzeroToTen
p589
F45.8
ssVcreepsPerMinDeltas
p590
(dp591
VzeroToTen
p592
F4.9
ssVxpPerMinDeltas
p593
(dp594
VzeroToTen
p595
F337.6
ssVrole
p596
VSOLO
p597
sVdamageTakenDiffPerMinDeltas
p598
(dp599
VzeroToTen
p600
F-360.59999999999997
ssVdamageTakenPerMinDeltas
p601
(dp602
VzeroToTen
p603
F365.9
sssVstats
p604
(dp605
VneutralMinionsKilledTeamJungle
p606
I0
sVtotalPlayerScore
p607
I0
sVunrealKills
p608
I0
sVobjectivePlayerScore
p609
I0
sVtotalDamageDealt
p610
I50149
sVmagicDamageDealtToChampions
p611
I6189
sVlargestMultiKill
p612
I2
sVlargestKillingSpree
p613
I5
sVitem1
p614
I3020
sVquadraKills
p615
I0
sVmagicDamageTaken
p616
I4376
sVtowerKills
p617
I0
sVtotalTimeCrowdControlDealt
p618
I21
sVwardsKilled
p619
I0
sVfirstTowerAssist
p620
I01
sVwinner
p621
I01
sVfirstTowerKill
p622
I00
sVitem2
p623
I1052
sVitem3
p624
I1052
sVitem0
p625
I3152
sVfirstBloodAssist
p626
I00
sVitem6
p627
I0
sVwardsPlaced
p628
I0
sVitem4
p629
I0
sVitem5
p630
I2003
sVminionsKilled
p631
I80
sVtripleKills
p632
I0
sVneutralMinionsKilledEnemyJungle
p633
I3
sVgoldEarned
p634
I6701
sVmagicDamageDealt
p635
I42355
sVkills
p636
I5
sVdoubleKills
p637
I1
sVfirstInhibitorKill
p638
I00
sVtrueDamageTaken
p639
I0
sVfirstBloodKill
p640
I00
sVassists
p641
I6
sVdeaths
p642
I1
sVneutralMinionsKilled
p643
I3
sVcombatPlayerScore
p644
I0
sVvisionWardsBoughtInGame
p645
I0
sVphysicalDamageDealtToChampions
p646
I483
sVgoldSpent
p647
I4680
sVtrueDamageDealt
p648
I184
sVtrueDamageDealtToChampions
p649
I184
sVchampLevel
p650
I11
sVpentaKills
p651
I0
sVfirstInhibitorAssist
p652
I01
sVtotalHeal
p653
I4231
sVphysicalDamageDealt
p654
I7610
sVlargestCriticalStrike
p655
I0
sVsightWardsBoughtInGame
p656
I0
sVtotalDamageDealtToChampions
p657
I6856
sVtotalUnitsHealed
p658
I1
sVinhibitorKills
p659
I0
sVtotalScoreRank
p660
I0
sVtotalDamageTaken
p661
I9544
sVkillingSprees
p662
I1
sVphysicalDamageTaken
p663
I5167
ssa(dp664
Vspell1Id
p665
I4
sVchampionId
p666
I79
sVparticipantId
p667
I5
sVrunes
p668
(lp669
(dp670
VruneId
p671
I5245
sVrank
p672
I9
sa(dp673
VruneId
p674
I5277
sVrank
p675
I4
sa(dp676
VruneId
p677
I5289
sVrank
p678
I5
sa(dp679
VruneId
p680
I5317
sVrank
p681
I9
sa(dp682
VruneId
p683
I5337
sVrank
p684
I3
sasVhighestAchievedSeasonTier
p685
VGOLD
p686
sVteamId
p687
I200
sVspell2Id
p688
I11
sVmasteries
p689
(lp690
(dp691
VmasteryId
p692
I4111
sVrank
p693
I1
sa(dp694
VmasteryId
p695
I4113
sVrank
p696
I4
sa(dp697
VmasteryId
p698
I4121
sVrank
p699
I1
sa(dp700
VmasteryId
p701
I4122
sVrank
p702
I3
sa(dp703
VmasteryId
p704
I4131
sVrank
p705
I1
sa(dp706
VmasteryId
p707
I4132
sVrank
p708
I1
sa(dp709
VmasteryId
p710
I4134
sVrank
p711
I3
sa(dp712
VmasteryId
p713
I4141
sVrank
p714
I1
sa(dp715
VmasteryId
p716
I4142
sVrank
p717
I1
sa(dp718
VmasteryId
p719
I4144
sVrank
p720
I1
sa(dp721
VmasteryId
p722
I4152
sVrank
p723
I3
sa(dp724
VmasteryId
p725
I4162
sVrank
p726
I1
sa(dp727
VmasteryId
p728
I4211
sVrank
p729
I2
sa(dp730
VmasteryId
p731
I4214
sVrank
p732
I2
sa(dp733
VmasteryId
p734
I4222
sVrank
p735
I3
sa(dp736
VmasteryId
p737
I4224
sVrank
p738
I1
sa(dp739
VmasteryId
p740
I4232
sVrank
p741
I1
sasVtimeline
p742
(dp743
Vlane
p744
VJUNGLE
p745
sVcsDiffPerMinDeltas
p746
(dp747
VzeroToTen
p748
F-1.3499999999999994
ssVgoldPerMinDeltas
p749
(dp750
VzeroToTen
p751
F189.1
ssVxpDiffPerMinDeltas
p752
(dp753
VzeroToTen
p754
F7.5
ssVcreepsPerMinDeltas
p755
(dp756
VzeroToTen
p757
F0.6
ssVxpPerMinDeltas
p758
(dp759
VzeroToTen
p760
F311.4
ssVrole
p761
VNONE
p762
sVdamageTakenDiffPerMinDeltas
p763
(dp764
VzeroToTen
p765
F202.89999999999998
ssVdamageTakenPerMinDeltas
p766
(dp767
VzeroToTen
p768
F729.0999999999999
sssVstats
p769
(dp770
VneutralMinionsKilledTeamJungle
p771
I32
sVtotalPlayerScore
p772
I0
sVunrealKills
p773
I0
sVobjectivePlayerScore
p774
I0
sVtotalDamageDealt
p775
I46905
sVmagicDamageDealtToChampions
p776
I3236
sVlargestMultiKill
p777
I2
sVlargestKillingSpree
p778
I2
sVitem1
p779
I3211
sVquadraKills
p780
I0
sVmagicDamageTaken
p781
I4076
sVtowerKills
p782
I0
sVtotalTimeCrowdControlDealt
p783
I241
sVwardsKilled
p784
I0
sVfirstTowerAssist
p785
I00
sVwinner
p786
I01
sVfirstTowerKill
p787
I00
sVitem2
p788
I1001
sVitem3
p789
I2004
sVitem0
p790
I3708
sVfirstBloodAssist
p791
I00
sVitem6
p792
I0
sVwardsPlaced
p793
I0
sVitem4
p794
I2003
sVitem5
p795
I0
sVminionsKilled
p796
I16
sVtripleKills
p797
I0
sVneutralMinionsKilledEnemyJungle
p798
I2
sVgoldEarned
p799
I5502
sVmagicDamageDealt
p800
I29818
sVkills
p801
I2
sVdoubleKills
p802
I1
sVfirstInhibitorKill
p803
I01
sVtrueDamageTaken
p804
I502
sVfirstBloodKill
p805
I00
sVassists
p806
I4
sVdeaths
p807
I5
sVneutralMinionsKilled
p808
I34
sVcombatPlayerScore
p809
I0
sVvisionWardsBoughtInGame
p810
I0
sVphysicalDamageDealtToChampions
p811
I1040
sVgoldSpent
p812
I4695
sVtrueDamageDealt
p813
I3416
sVtrueDamageDealtToChampions
p814
I196
sVchampLevel
p815
I10
sVpentaKills
p816
I0
sVfirstInhibitorAssist
p817
I00
sVtotalHeal
p818
I1837
sVphysicalDamageDealt
p819
I13670
sVlargestCriticalStrike
p820
I461
sVsightWardsBoughtInGame
p821
I0
sVtotalDamageDealtToChampions
p822
I4472
sVtotalUnitsHealed
p823
I1
sVinhibitorKills
p824
I1
sVtotalScoreRank
p825
I0
sVtotalDamageTaken
p826
I13408
sVkillingSprees
p827
I1
sVphysicalDamageTaken
p828
I8830
ssa(dp829
Vspell1Id
p830
I4
sVchampionId
p831
I126
sVparticipantId
p832
I6
sVrunes
p833
(lp834
(dp835
VruneId
p836
I5253
sVrank
p837
I9
sa(dp838
VruneId
p839
I5289
sVrank
p840
I9
sa(dp841
VruneId
p842
I5316
sVrank
p843
I9
sa(dp844
VruneId
p845
I5335
sVrank
p846
I3
sasVhighestAchievedSeasonTier
p847
VGOLD
p848
sVteamId
p849
I200
sVspell2Id
p850
I14
sVmasteries
p851
(lp852
(dp853
VmasteryId
p854
I4113
sVrank
p855
I4
sa(dp856
VmasteryId
p857
I4114
sVrank
p858
I1
sa(dp859
VmasteryId
p860
I4122
sVrank
p861
I3
sa(dp862
VmasteryId
p863
I4124
sVrank
p864
I1
sa(dp865
VmasteryId
p866
I4131
sVrank
p867
I1
sa(dp868
VmasteryId
p869
I4132
sVrank
p870
I1
sa(dp871
VmasteryId
p872
I4134
sVrank
p873
I3
sa(dp874
VmasteryId
p875
I4141
sVrank
p876
I1
sa(dp877
VmasteryId
p878
I4142
sVrank
p879
I1
sa(dp880
VmasteryId
p881
I4144
sVrank
p882
I1
sa(dp883
VmasteryId
p884
I4152
sVrank
p885
I3
sa(dp886
VmasteryId
p887
I4162
sVrank
p888
I1
sa(dp889
VmasteryId
p890
I4211
sVrank
p891
I2
sa(dp892
VmasteryId
p893
I4212
sVrank
p894
I2
sa(dp895
VmasteryId
p896
I4221
sVrank
p897
I1
sa(dp898
VmasteryId
p899
I4222
sVrank
p900
I3
sa(dp901
VmasteryId
p902
I4232
sVrank
p903
I1
sasVtimeline
p904
(dp905
Vlane
p906
VJUNGLE
p907
sVcsDiffPerMinDeltas
p908
(dp909
VzeroToTen
p910
F-1.3499999999999994
ssVgoldPerMinDeltas
p911
(dp912
VzeroToTen
p913
F357.1
ssVxpDiffPerMinDeltas
p914
(dp915
VzeroToTen
p916
F7.5
ssVcreepsPerMinDeltas
p917
(dp918
VzeroToTen
p919
F6.0
ssVxpPerMinDeltas
p920
(dp921
VzeroToTen
p922
F481.1
ssVrole
p923
VNONE
p924
sVdamageTakenDiffPerMinDeltas
p925
(dp926
VzeroToTen
p927
F202.89999999999998
ssVdamageTakenPerMinDeltas
p928
(dp929
VzeroToTen
p930
F531.0
sssVstats
p931
(dp932
VneutralMinionsKilledTeamJungle
p933
I0
sVtotalPlayerScore
p934
I0
sVunrealKills
p935
I0
sVobjectivePlayerScore
p936
I0
sVtotalDamageDealt
p937
I57523
sVmagicDamageDealtToChampions
p938
I1754
sVlargestMultiKill
p939
I1
sVlargestKillingSpree
p940
I6
sVitem1
p941
I3134
sVquadraKills
p942
I0
sVmagicDamageTaken
p943
I4594
sVtowerKills
p944
I2
sVtotalTimeCrowdControlDealt
p945
I72
sVwardsKilled
p946
I0
sVfirstTowerAssist
p947
I00
sVwinner
p948
I01
sVfirstTowerKill
p949
I01
sVitem2
p950
I3035
sVitem3
p951
I2004
sVitem0
p952
I3070
sVfirstBloodAssist
p953
I00
sVitem6
p954
I0
sVwardsPlaced
p955
I0
sVitem4
p956
I1037
sVitem5
p957
I1001
sVminionsKilled
p958
I95
sVtripleKills
p959
I0
sVneutralMinionsKilledEnemyJungle
p960
I0
sVgoldEarned
p961
I8039
sVmagicDamageDealt
p962
I3602
sVkills
p963
I8
sVdoubleKills
p964
I0
sVfirstInhibitorKill
p965
I00
sVtrueDamageTaken
p966
I314
sVfirstBloodKill
p967
I01
sVassists
p968
I7
sVdeaths
p969
I2
sVneutralMinionsKilled
p970
I0
sVcombatPlayerScore
p971
I0
sVvisionWardsBoughtInGame
p972
I0
sVphysicalDamageDealtToChampions
p973
I13588
sVgoldSpent
p974
I5802
sVtrueDamageDealt
p975
I229
sVtrueDamageDealtToChampions
p976
I229
sVchampLevel
p977
I12
sVpentaKills
p978
I0
sVfirstInhibitorAssist
p979
I01
sVtotalHeal
p980
I799
sVphysicalDamageDealt
p981
I53691
sVlargestCriticalStrike
p982
I0
sVsightWardsBoughtInGame
p983
I0
sVtotalDamageDealtToChampions
p984
I15573
sVtotalUnitsHealed
p985
I1
sVinhibitorKills
p986
I0
sVtotalScoreRank
p987
I0
sVtotalDamageTaken
p988
I9240
sVkillingSprees
p989
I2
sVphysicalDamageTaken
p990
I4332
ssaa(lp991
(I4
g495
tp992
a(I5
g497
tp993
a(I6
g499
tp994
aaa(lp995
(dp996
g3
VTwilight Hall
p997
sg5
I519865749
sg6
I00
sa(lp998
(dp999
Vspell1Id
p1000
I4
sVchampionId
p1001
I8
sVparticipantId
p1002
I1
sVrunes
p1003
(lp1004
(dp1005
VruneId
p1006
I5295
sVrank
p1007
I9
sa(dp1008
VruneId
p1009
I5316
sVrank
p1010
I9
sa(dp1011
VruneId
p1012
I5357
sVrank
p1013
I3
sa(dp1014
VruneId
p1015
I5402
sVrank
p1016
I9
sasVhighestAchievedSeasonTier
p1017
VGOLD
p1018
sVteamId
p1019
I100
sVspell2Id
p1020
I14
sVmasteries
p1021
(lp1022
(dp1023
VmasteryId
p1024
I4113
sVrank
p1025
I3
sa(dp1026
VmasteryId
p1027
I4114
sVrank
p1028
I1
sa(dp1029
VmasteryId
p1030
I4123
sVrank
p1031
I3
sa(dp1032
VmasteryId
p1033
I4124
sVrank
p1034
I1
sa(dp1035
VmasteryId
p1036
I4133
sVrank
p1037
I1
sa(dp1038
VmasteryId
p1039
I4134
sVrank
p1040
I3
sa(dp1041
VmasteryId
p1042
I4143
sVrank
p1043
I3
sa(dp1044
VmasteryId
p1045
I4144
sVrank
p1046
I1
sa(dp1047
VmasteryId
p1048
I4152
sVrank
p1049
I3
sa(dp1050
VmasteryId
p1051
I4154
sVrank
p1052
I1
sa(dp1053
VmasteryId
p1054
I4162
sVrank
p1055
I1
sa(dp1056
VmasteryId
p1057
I4211
sVrank
p1058
I2
sa(dp1059
VmasteryId
p1060
I4212
sVrank
p1061
I2
sa(dp1062
VmasteryId
p1063
I4221
sVrank
p1064
I1
sa(dp1065
VmasteryId
p1066
I4222
sVrank
p1067
I3
sa(dp1068
VmasteryId
p1069
I4232
sVrank
p1070
I1
sasVtimeline
p1071
(dp1072
Vlane
p1073
VJUNGLE
p1074
sVcsDiffPerMinDeltas
p1075
(dp1076
VzeroToTen
p1077
F0.5666666666666672
sVtenToTwenty
p1078
F-1.5333333333333334
ssVgoldPerMinDeltas
p1079
(dp1080
VzeroToTen
p1081
F416.1
sVtenToTwenty
p1082
F389.0
ssVxpDiffPerMinDeltas
p1083
(dp1084
VzeroToTen
p1085
F15.966666666666612
sVtenToTwenty
p1086
F-139.9333333333333
ssVcreepsPerMinDeltas
p1087
(dp1088
VzeroToTen
p1089
F5.2
sVtenToTwenty
p1090
F5.1
ssVxpPerMinDeltas
p1091
(dp1092
VzeroToTen
p1093
F414.0
sVtenToTwenty
p1094
F494.2
ssVrole
p1095
VNONE
p1096
sVdamageTakenDiffPerMinDeltas
p1097
(dp1098
VzeroToTen
p1099
F50.133333333333326
sVtenToTwenty
p1100
F453.53333333333325
ssVdamageTakenPerMinDeltas
p1101
(dp1102
VzeroToTen
p1103
F683.1
sVtenToTwenty
p1104
F1572.1
sssVstats
p1105
(dp1106
VneutralMinionsKilledTeamJungle
p1107
I10
sVtotalPlayerScore
p1108
I0
sVunrealKills
p1109
I0
sVobjectivePlayerScore
p1110
I0
sVtotalDamageDealt
p1111
I108781
sVmagicDamageDealtToChampions
p1112
I17890
sVlargestMultiKill
p1113
I2
sVlargestKillingSpree
p1114
I4
sVitem1
p1115
I3020
sVquadraKills
p1116
I0
sVmagicDamageTaken
p1117
I13404
sVtowerKills
p1118
I0
sVtotalTimeCrowdControlDealt
p1119
I362
sVwardsKilled
p1120
I0
sVfirstTowerAssist
p1121
I00
sVwinner
p1122
I00
sVfirstTowerKill
p1123
I00
sVitem2
p1124
I3116
sVitem3
p1125
I0
sVitem0
p1126
I3152
sVfirstBloodAssist
p1127
I00
sVitem6
p1128
I0
sVwardsPlaced
p1129
I0
sVitem4
p1130
I0
sVitem5
p1131
I3090
sVminionsKilled
p1132
I125
sVtripleKills
p1133
I0
sVneutralMinionsKilledEnemyJungle
p1134
I5
sVgoldEarned
p1135
I10828
sVmagicDamageDealt
p1136
I100472
sVkills
p1137
I10
sVdoubleKills
p1138
I1
sVfirstInhibitorKill
p1139
I00
sVtrueDamageTaken
p1140
I760
sVfirstBloodKill
p1141
I01
sVassists
p1142
I8
sVdeaths
p1143
I7
sVneutralMinionsKilled
p1144
I15
sVcombatPlayerScore
p1145
I0
sVvisionWardsBoughtInGame
p1146
I0
sVphysicalDamageDealtToChampions
p1147
I1371
sVgoldSpent
p1148
I10390
sVtrueDamageDealt
p1149
I780
sVtrueDamageDealtToChampions
p1150
I780
sVchampLevel
p1151
I15
sVpentaKills
p1152
I0
sVfirstInhibitorAssist
p1153
I00
sVtotalHeal
p1154
I9562
sVphysicalDamageDealt
p1155
I7529
sVlargestCriticalStrike
p1156
I0
sVsightWardsBoughtInGame
p1157
I0
sVtotalDamageDealtToChampions
p1158
I20041
sVtotalUnitsHealed
p1159
I1
sVinhibitorKills
p1160
I0
sVtotalScoreRank
p1161
I0
sVtotalDamageTaken
p1162
I29185
sVkillingSprees
p1163
I2
sVphysicalDamageTaken
p1164
I15020
ssa(dp1165
Vspell1Id
p1166
I4
sVchampionId
p1167
I64
sVparticipantId
p1168
I2
sVrunes
p1169
(lp1170
(dp1171
VruneId
p1172
I5245
sVrank
p1173
I9
sa(dp1174
VruneId
p1175
I5289
sVrank
p1176
I9
sa(dp1177
VruneId
p1178
I5317
sVrank
p1179
I4
sa(dp1180
VruneId
p1181
I5318
sVrank
p1182
I5
sa(dp1183
VruneId
p1184
I5335
sVrank
p1185
I3
sasVhighestAchievedSeasonTier
p1186
VGOLD
p1187
sVteamId
p1188
I100
sVspell2Id
p1189
I11
sVmasteries
p1190
(lp1191
(dp1192
VmasteryId
p1193
I4111
sVrank
p1194
I1
sa(dp1195
VmasteryId
p1196
I4113
sVrank
p1197
I4
sa(dp1198
VmasteryId
p1199
I4121
sVrank
p1200
I1
sa(dp1201
VmasteryId
p1202
I4122
sVrank
p1203
I3
sa(dp1204
VmasteryId
p1205
I4131
sVrank
p1206
I1
sa(dp1207
VmasteryId
p1208
I4132
sVrank
p1209
I1
sa(dp1210
VmasteryId
p1211
I4134
sVrank
p1212
I3
sa(dp1213
VmasteryId
p1214
I4141
sVrank
p1215
I1
sa(dp1216
VmasteryId
p1217
I4142
sVrank
p1218
I1
sa(dp1219
VmasteryId
p1220
I4144
sVrank
p1221
I1
sa(dp1222
VmasteryId
p1223
I4152
sVrank
p1224
I3
sa(dp1225
VmasteryId
p1226
I4162
sVrank
p1227
I1
sa(dp1228
VmasteryId
p1229
I4211
sVrank
p1230
I2
sa(dp1231
VmasteryId
p1232
I4214
sVrank
p1233
I2
sa(dp1234
VmasteryId
p1235
I4222
sVrank
p1236
I3
sa(dp1237
VmasteryId
p1238
I4224
sVrank
p1239
I1
sa(dp1240
VmasteryId
p1241
I4232
sVrank
p1242
I1
sasVtimeline
p1243
(dp1244
Vlane
p1245
VJUNGLE
p1246
sVcsDiffPerMinDeltas
p1247
(dp1248
VzeroToTen
p1249
F0.5666666666666672
sVtenToTwenty
p1250
F-1.5333333333333334
ssVgoldPerMinDeltas
p1251
(dp1252
VzeroToTen
p1253
F225.0
sVtenToTwenty
p1254
F350.5
ssVxpDiffPerMinDeltas
p1255
(dp1256
VzeroToTen
p1257
F15.966666666666612
sVtenToTwenty
p1258
F-139.9333333333333
ssVcreepsPerMinDeltas
p1259
(dp1260
VzeroToTen
p1261
F0.30000000000000004
sVtenToTwenty
p1262
F2.1
ssVxpPerMinDeltas
p1263
(dp1264
VzeroToTen
p1265
F316.1
sVtenToTwenty
p1266
F484.1
ssVrole
p1267
VNONE
p1268
sVdamageTakenDiffPerMinDeltas
p1269
(dp1270
VzeroToTen
p1271
F50.133333333333326
sVtenToTwenty
p1272
F453.53333333333325
ssVdamageTakenPerMinDeltas
p1273
(dp1274
VzeroToTen
p1275
F733.8
sVtenToTwenty
p1276
F1147.1
sssVstats
p1277
(dp1278
VneutralMinionsKilledTeamJungle
p1279
I45
sVtotalPlayerScore
p1280
I0
sVunrealKills
p1281
I0
sVobjectivePlayerScore
p1282
I0
sVtotalDamageDealt
p1283
I87886
sVmagicDamageDealtToChampions
p1284
I1503
sVlargestMultiKill
p1285
I1
sVlargestKillingSpree
p1286
I0
sVitem1
p1287
I3723
sVquadraKills
p1288
I0
sVmagicDamageTaken
p1289
I10787
sVtowerKills
p1290
I0
sVtotalTimeCrowdControlDealt
p1291
I457
sVwardsKilled
p1292
I0
sVfirstTowerAssist
p1293
I00
sVwinner
p1294
I00
sVfirstTowerKill
p1295
I00
sVitem2
p1296
I3047
sVitem3
p1297
I3211
sVitem0
p1298
I3143
sVfirstBloodAssist
p1299
I00
sVitem6
p1300
I0
sVwardsPlaced
p1301
I0
sVitem4
p1302
I1031
sVitem5
p1303
I0
sVminionsKilled
p1304
I37
sVtripleKills
p1305
I0
sVneutralMinionsKilledEnemyJungle
p1306
I2
sVgoldEarned
p1307
I8642
sVmagicDamageDealt
p1308
I15459
sVkills
p1309
I3
sVdoubleKills
p1310
I0
sVfirstInhibitorKill
p1311
I00
sVtrueDamageTaken
p1312
I1308
sVfirstBloodKill
p1313
I00
sVassists
p1314
I8
sVdeaths
p1315
I12
sVneutralMinionsKilled
p1316
I47
sVcombatPlayerScore
p1317
I0
sVvisionWardsBoughtInGame
p1318
I0
sVphysicalDamageDealtToChampions
p1319
I6617
sVgoldSpent
p1320
I8505
sVtrueDamageDealt
p1321
I14736
sVtrueDamageDealtToChampions
p1322
I10
sVchampLevel
p1323
I14
sVpentaKills
p1324
I0
sVfirstInhibitorAssist
p1325
I00
sVtotalHeal
p1326
I1005
sVphysicalDamageDealt
p1327
I57690
sVlargestCriticalStrike
p1328
I0
sVsightWardsBoughtInGame
p1329
I0
sVtotalDamageDealtToChampions
p1330
I8131
sVtotalUnitsHealed
p1331
I1
sVinhibitorKills
p1332
I0
sVtotalScoreRank
p1333
I0
sVtotalDamageTaken
p1334
I27610
sVkillingSprees
p1335
I0
sVphysicalDamageTaken
p1336
I15515
ssa(dp1337
Vspell1Id
p1338
I4
sVchampionId
p1339
I150
sVparticipantId
p1340
I3
sVrunes
p1341
(lp1342
(dp1343
VruneId
p1344
I5245
sVrank
p1345
I9
sa(dp1346
VruneId
p1347
I5277
sVrank
p1348
I4
sa(dp1349
VruneId
p1350
I5289
sVrank
p1351
I5
sa(dp1352
VruneId
p1353
I5317
sVrank
p1354
I9
sa(dp1355
VruneId
p1356
I5337
sVrank
p1357
I3
sasVhighestAchievedSeasonTier
p1358
VGOLD
p1359
sVteamId
p1360
I100
sVspell2Id
p1361
I3
sVmasteries
p1362
(lp1363
(dp1364
VmasteryId
p1365
I4112
sVrank
p1366
I4
sa(dp1367
VmasteryId
p1368
I4114
sVrank
p1369
I1
sa(dp1370
VmasteryId
p1371
I4121
sVrank
p1372
I1
sa(dp1373
VmasteryId
p1374
I4122
sVrank
p1375
I3
sa(dp1376
VmasteryId
p1377
I4124
sVrank
p1378
I1
sa(dp1379
VmasteryId
p1380
I4131
sVrank
p1381
I1
sa(dp1382
VmasteryId
p1383
I4132
sVrank
p1384
I1
sa(dp1385
VmasteryId
p1386
I4134
sVrank
p1387
I3
sa(dp1388
VmasteryId
p1389
I4141
sVrank
p1390
I1
sa(dp1391
VmasteryId
p1392
I4144
sVrank
p1393
I1
sa(dp1394
VmasteryId
p1395
I4152
sVrank
p1396
I3
sa(dp1397
VmasteryId
p1398
I4162
sVrank
p1399
I1
sa(dp1400
VmasteryId
p1401
I4211
sVrank
p1402
I2
sa(dp1403
VmasteryId
p1404
I4212
sVrank
p1405
I2
sa(dp1406
VmasteryId
p1407
I4221
sVrank
p1408
I1
sa(dp1409
VmasteryId
p1410
I4222
sVrank
p1411
I3
sa(dp1412
VmasteryId
p1413
I4232
sVrank
p1414
I1
sasVtimeline
p1415
(dp1416
Vlane
p1417
VJUNGLE
p1418
sVcsDiffPerMinDeltas
p1419
(dp1420
VzeroToTen
p1421
F0.5666666666666672
sVtenToTwenty
p1422
F-1.5333333333333334
ssVgoldPerMinDeltas
p1423
(dp1424
VzeroToTen
p1425
F363.9
sVtenToTwenty
p1426
F311.6
ssVxpDiffPerMinDeltas
p1427
(dp1428
VzeroToTen
p1429
F15.966666666666612
sVtenToTwenty
p1430
F-139.9333333333333
ssVcreepsPerMinDeltas
p1431
(dp1432
VzeroToTen
p1433
F5.1
sVtenToTwenty
p1434
F3.2
ssVxpPerMinDeltas
p1435
(dp1436
VzeroToTen
p1437
F420.20000000000005
sVtenToTwenty
p1438
F450.29999999999995
ssVrole
p1439
VNONE
p1440
sVdamageTakenDiffPerMinDeltas
p1441
(dp1442
VzeroToTen
p1443
F50.133333333333326
sVtenToTwenty
p1444
F453.53333333333325
ssVdamageTakenPerMinDeltas
p1445
(dp1446
VzeroToTen
p1447
F596.0
sVtenToTwenty
p1448
F1356.0
sssVstats
p1449
(dp1450
VneutralMinionsKilledTeamJungle
p1451
I9
sVtotalPlayerScore
p1452
I0
sVunrealKills
p1453
I0
sVobjectivePlayerScore
p1454
I0
sVtotalDamageDealt
p1455
I68845
sVmagicDamageDealtToChampions
p1456
I1291
sVlargestMultiKill
p1457
I1
sVlargestKillingSpree
p1458
I3
sVitem1
p1459
I3143
sVquadraKills
p1460
I0
sVmagicDamageTaken
p1461
I13544
sVtowerKills
p1462
I0
sVtotalTimeCrowdControlDealt
p1463
I626
sVwardsKilled
p1464
I0
sVfirstTowerAssist
p1465
I00
sVwinner
p1466
I00
sVfirstTowerKill
p1467
I00
sVitem2
p1468
I3268
sVitem3
p1469
I3065
sVitem0
p1470
I3044
sVfirstBloodAssist
p1471
I00
sVitem6
p1472
I0
sVwardsPlaced
p1473
I0
sVitem4
p1474
I0
sVitem5
p1475
I2003
sVminionsKilled
p1476
I94
sVtripleKills
p1477
I0
sVneutralMinionsKilledEnemyJungle
p1478
I1
sVgoldEarned
p1479
I9388
sVmagicDamageDealt
p1480
I6422
sVkills
p1481
I8
sVdoubleKills
p1482
I0
sVfirstInhibitorKill
p1483
I00
sVtrueDamageTaken
p1484
I796
sVfirstBloodKill
p1485
I00
sVassists
p1486
I8
sVdeaths
p1487
I7
sVneutralMinionsKilled
p1488
I10
sVcombatPlayerScore
p1489
I0
sVvisionWardsBoughtInGame
p1490
I0
sVphysicalDamageDealtToChampions
p1491
I14595
sVgoldSpent
p1492
I8908
sVtrueDamageDealt
p1493
I10
sVtrueDamageDealtToChampions
p1494
I10
sVchampLevel
p1495
I14
sVpentaKills
p1496
I0
sVfirstInhibitorAssist
p1497
I00
sVtotalHeal
p1498
I1279
sVphysicalDamageDealt
p1499
I62412
sVlargestCriticalStrike
p1500
I440
sVsightWardsBoughtInGame
p1501
I0
sVtotalDamageDealtToChampions
p1502
I15897
sVtotalUnitsHealed
p1503
I1
sVinhibitorKills
p1504
I0
sVtotalScoreRank
p1505
I0
sVtotalDamageTaken
p1506
I29089
sVkillingSprees
p1507
I3
sVphysicalDamageTaken
p1508
I14749
ssaa(lp1509
(I1
g495
tp1510
a(I2
g497
tp1511
a(I3
g499
tp1512
aaa(lp1513
(dp1514
g3
VPrata V Desde a Season I
p1515
sg5
I518607145
sg6
I01
sa(lp1516
(dp1517
Vspell1Id
p1518
I4
sVchampionId
p1519
I8
sVparticipantId
p1520
I4
sVrunes
p1521
(lp1522
(dp1523
VruneId
p1524
I5295
sVrank
p1525
I9
sa(dp1526
VruneId
p1527
I5316
sVrank
p1528
I9
sa(dp1529
VruneId
p1530
I5357
sVrank
p1531
I3
sa(dp1532
VruneId
p1533
I5402
sVrank
p1534
I9
sasVhighestAchievedSeasonTier
p1535
VGOLD
p1536
sVteamId
p1537
I200
sVspell2Id
p1538
I14
sVmasteries
p1539
(lp1540
(dp1541
VmasteryId
p1542
I4113
sVrank
p1543
I3
sa(dp1544
VmasteryId
p1545
I4114
sVrank
p1546
I1
sa(dp1547
VmasteryId
p1548
I4123
sVrank
p1549
I3
sa(dp1550
VmasteryId
p1551
I4124
sVrank
p1552
I1
sa(dp1553
VmasteryId
p1554
I4133
sVrank
p1555
I1
sa(dp1556
VmasteryId
p1557
I4134
sVrank
p1558
I3
sa(dp1559
VmasteryId
p1560
I4143
sVrank
p1561
I3
sa(dp1562
VmasteryId
p1563
I4144
sVrank
p1564
I1
sa(dp1565
VmasteryId
p1566
I4152
sVrank
p1567
I3
sa(dp1568
VmasteryId
p1569
I4154
sVrank
p1570
I1
sa(dp1571
VmasteryId
p1572
I4162
sVrank
p1573
I1
sa(dp1574
VmasteryId
p1575
I4211
sVrank
p1576
I2
sa(dp1577
VmasteryId
p1578
I4212
sVrank
p1579
I2
sa(dp1580
VmasteryId
p1581
I4221
sVrank
p1582
I1
sa(dp1583
VmasteryId
p1584
I4222
sVrank
p1585
I3
sa(dp1586
VmasteryId
p1587
I4232
sVrank
p1588
I1
sasVtimeline
p1589
(dp1590
Vlane
p1591
VBOTTOM
p1592
sVgoldPerMinDeltas
p1593
(dp1594
VzeroToTen
p1595
F186.4
sVtenToTwenty
p1596
F384.9
ssVcreepsPerMinDeltas
p1597
(dp1598
VzeroToTen
p1599
F3.9000000000000004
sVtenToTwenty
p1600
F7.8
ssVxpPerMinDeltas
p1601
(dp1602
VzeroToTen
p1603
F310.4
sVtenToTwenty
p1604
F520.9000000000001
ssVrole
p1605
VSOLO
p1606
sVdamageTakenPerMinDeltas
p1607
(dp1608
VzeroToTen
p1609
F539.6
sVtenToTwenty
p1610
F919.0
sssVstats
p1611
(dp1612
VneutralMinionsKilledTeamJungle
p1613
I16
sVtotalPlayerScore
p1614
I0
sVunrealKills
p1615
I0
sVobjectivePlayerScore
p1616
I0
sVtotalDamageDealt
p1617
I138083
sVmagicDamageDealtToChampions
p1618
I19588
sVlargestMultiKill
p1619
I1
sVlargestKillingSpree
p1620
I0
sVitem1
p1621
I3020
sVquadraKills
p1622
I0
sVmagicDamageTaken
p1623
I3189
sVtowerKills
p1624
I0
sVtotalTimeCrowdControlDealt
p1625
I76
sVwardsKilled
p1626
I0
sVfirstTowerAssist
p1627
I00
sVwinner
p1628
I01
sVfirstTowerKill
p1629
I00
sVitem2
p1630
I1026
sVitem3
p1631
I1052
sVitem0
p1632
I3152
sVfirstBloodAssist
p1633
I00
sVitem6
p1634
I0
sVwardsPlaced
p1635
I0
sVitem4
p1636
I1011
sVitem5
p1637
I3090
sVminionsKilled
p1638
I161
sVtripleKills
p1639
I0
sVneutralMinionsKilledEnemyJungle
p1640
I3
sVgoldEarned
p1641
I10626
sVmagicDamageDealt
p1642
I125412
sVkills
p1643
I4
sVdoubleKills
p1644
I0
sVfirstInhibitorKill
p1645
I00
sVtrueDamageTaken
p1646
I76
sVfirstBloodKill
p1647
I00
sVassists
p1648
I10
sVdeaths
p1649
I8
sVneutralMinionsKilled
p1650
I19
sVcombatPlayerScore
p1651
I0
sVvisionWardsBoughtInGame
p1652
I0
sVphysicalDamageDealtToChampions
p1653
I1412
sVgoldSpent
p1654
I9505
sVtrueDamageDealt
p1655
I560
sVtrueDamageDealtToChampions
p1656
I560
sVchampLevel
p1657
I15
sVpentaKills
p1658
I0
sVfirstInhibitorAssist
p1659
I00
sVtotalHeal
p1660
I9358
sVphysicalDamageDealt
p1661
I12111
sVlargestCriticalStrike
p1662
I0
sVsightWardsBoughtInGame
p1663
I0
sVtotalDamageDealtToChampions
p1664
I21560
sVtotalUnitsHealed
p1665
I1
sVinhibitorKills
p1666
I0
sVtotalScoreRank
p1667
I0
sVtotalDamageTaken
p1668
I22655
sVkillingSprees
p1669
I0
sVphysicalDamageTaken
p1670
I19390
ssa(dp1671
Vspell1Id
p1672
I4
sVchampionId
p1673
I150
sVparticipantId
p1674
I5
sVrunes
p1675
(lp1676
(dp1677
VruneId
p1678
I5245
sVrank
p1679
I9
sa(dp1680
VruneId
p1681
I5277
sVrank
p1682
I4
sa(dp1683
VruneId
p1684
I5289
sVrank
p1685
I5
sa(dp1686
VruneId
p1687
I5317
sVrank
p1688
I9
sa(dp1689
VruneId
p1690
I5337
sVrank
p1691
I3
sasVhighestAchievedSeasonTier
p1692
VGOLD
p1693
sVteamId
p1694
I200
sVspell2Id
p1695
I3
sVmasteries
p1696
(lp1697
(dp1698
VmasteryId
p1699
I4112
sVrank
p1700
I4
sa(dp1701
VmasteryId
p1702
I4114
sVrank
p1703
I1
sa(dp1704
VmasteryId
p1705
I4121
sVrank
p1706
I1
sa(dp1707
VmasteryId
p1708
I4122
sVrank
p1709
I3
sa(dp1710
VmasteryId
p1711
I4124
sVrank
p1712
I1
sa(dp1713
VmasteryId
p1714
I4131
sVrank
p1715
I1
sa(dp1716
VmasteryId
p1717
I4132
sVrank
p1718
I1
sa(dp1719
VmasteryId
p1720
I4134
sVrank
p1721
I3
sa(dp1722
VmasteryId
p1723
I4141
sVrank
p1724
I1
sa(dp1725
VmasteryId
p1726
I4144
sVrank
p1727
I1
sa(dp1728
VmasteryId
p1729
I4152
sVrank
p1730
I3
sa(dp1731
VmasteryId
p1732
I4162
sVrank
p1733
I1
sa(dp1734
VmasteryId
p1735
I4211
sVrank
p1736
I2
sa(dp1737
VmasteryId
p1738
I4212
sVrank
p1739
I2
sa(dp1740
VmasteryId
p1741
I4221
sVrank
p1742
I1
sa(dp1743
VmasteryId
p1744
I4222
sVrank
p1745
I3
sa(dp1746
VmasteryId
p1747
I4232
sVrank
p1748
I1
sasVtimeline
p1749
(dp1750
Vlane
p1751
VJUNGLE
p1752
sVcsDiffPerMinDeltas
p1753
(dp1754
VzeroToTen
p1755
F-0.6000000000000001
sVtenToTwenty
p1756
F0.6999999999999995
ssVgoldPerMinDeltas
p1757
(dp1758
VzeroToTen
p1759
F204.7
sVtenToTwenty
p1760
F351.0
ssVxpDiffPerMinDeltas
p1761
(dp1762
VzeroToTen
p1763
F-74.05000000000001
sVtenToTwenty
p1764
F115.50000000000003
ssVcreepsPerMinDeltas
p1765
(dp1766
VzeroToTen
p1767
F4.9
sVtenToTwenty
p1768
F6.8
ssVxpPerMinDeltas
p1769
(dp1770
VzeroToTen
p1771
F338.9
sVtenToTwenty
p1772
F524.7
ssVrole
p1773
VNONE
p1774
sVdamageTakenDiffPerMinDeltas
p1775
(dp1776
VzeroToTen
p1777
F159.50000000000003
sVtenToTwenty
p1778
F22.450000000000045
ssVdamageTakenPerMinDeltas
p1779
(dp1780
VzeroToTen
p1781
F319.1
sVtenToTwenty
p1782
F936.4
sssVstats
p1783
(dp1784
VneutralMinionsKilledTeamJungle
p1785
I11
sVtotalPlayerScore
p1786
I0
sVunrealKills
p1787
I0
sVobjectivePlayerScore
p1788
I0
sVtotalDamageDealt
p1789
I98138
sVmagicDamageDealtToChampions
p1790
I2827
sVlargestMultiKill
p1791
I1
sVlargestKillingSpree
p1792
I5
sVitem1
p1793
I3143
sVquadraKills
p1794
I0
sVmagicDamageTaken
p1795
I6117
sVtowerKills
p1796
I1
sVtotalTimeCrowdControlDealt
p1797
I614
sVwardsKilled
p1798
I0
sVfirstTowerAssist
p1799
I00
sVwinner
p1800
I01
sVfirstTowerKill
p1801
I00
sVitem2
p1802
I3047
sVitem3
p1803
I3044
sVitem0
p1804
I2003
sVfirstBloodAssist
p1805
I00
sVitem6
p1806
I0
sVwardsPlaced
p1807
I0
sVitem4
p1808
I3068
sVitem5
p1809
I3086
sVminionsKilled
p1810
I147
sVtripleKills
p1811
I0
sVneutralMinionsKilledEnemyJungle
p1812
I0
sVgoldEarned
p1813
I10716
sVmagicDamageDealt
p1814
I14689
sVkills
p1815
I5
sVdoubleKills
p1816
I0
sVfirstInhibitorKill
p1817
I00
sVtrueDamageTaken
p1818
I230
sVfirstBloodKill
p1819
I00
sVassists
p1820
I12
sVdeaths
p1821
I4
sVneutralMinionsKilled
p1822
I11
sVcombatPlayerScore
p1823
I0
sVvisionWardsBoughtInGame
p1824
I0
sVphysicalDamageDealtToChampions
p1825
I16335
sVgoldSpent
p1826
I9085
sVtrueDamageDealt
p1827
I0
sVtrueDamageDealtToChampions
p1828
I0
sVchampLevel
p1829
I15
sVpentaKills
p1830
I0
sVfirstInhibitorAssist
p1831
I00
sVtotalHeal
p1832
I1407
sVphysicalDamageDealt
p1833
I83449
sVlargestCriticalStrike
p1834
I374
sVsightWardsBoughtInGame
p1835
I0
sVtotalDamageDealtToChampions
p1836
I19163
sVtotalUnitsHealed
p1837
I1
sVinhibitorKills
p1838
I0
sVtotalScoreRank
p1839
I0
sVtotalDamageTaken
p1840
I21141
sVkillingSprees
p1841
I1
sVphysicalDamageTaken
p1842
I14794
ssa(dp1843
Vspell1Id
p1844
I4
sVchampionId
p1845
I79
sVparticipantId
p1846
I6
sVrunes
p1847
(lp1848
(dp1849
VruneId
p1850
I5245
sVrank
p1851
I9
sa(dp1852
VruneId
p1853
I5277
sVrank
p1854
I4
sa(dp1855
VruneId
p1856
I5289
sVrank
p1857
I5
sa(dp1858
VruneId
p1859
I5317
sVrank
p1860
I9
sa(dp1861
VruneId
p1862
I5337
sVrank
p1863
I3
sasVhighestAchievedSeasonTier
p1864
VGOLD
p1865
sVteamId
p1866
I200
sVspell2Id
p1867
I11
sVmasteries
p1868
(lp1869
(dp1870
VmasteryId
p1871
I4112
sVrank
p1872
I4
sa(dp1873
VmasteryId
p1874
I4114
sVrank
p1875
I1
sa(dp1876
VmasteryId
p1877
I4122
sVrank
p1878
I3
sa(dp1879
VmasteryId
p1880
I4132
sVrank
p1881
I1
sa(dp1882
VmasteryId
p1883
I4211
sVrank
p1884
I2
sa(dp1885
VmasteryId
p1886
I4213
sVrank
p1887
I2
sa(dp1888
VmasteryId
p1889
I4214
sVrank
p1890
I2
sa(dp1891
VmasteryId
p1892
I4221
sVrank
p1893
I1
sa(dp1894
VmasteryId
p1895
I4222
sVrank
p1896
I3
sa(dp1897
VmasteryId
p1898
I4231
sVrank
p1899
I1
sa(dp1900
VmasteryId
p1901
I4232
sVrank
p1902
I1
sa(dp1903
VmasteryId
p1904
I4233
sVrank
p1905
I3
sa(dp1906
VmasteryId
p1907
I4234
sVrank
p1908
I3
sa(dp1909
VmasteryId
p1910
I4243
sVrank
p1911
I1
sa(dp1912
VmasteryId
p1913
I4244
sVrank
p1914
I1
sa(dp1915
VmasteryId
p1916
I4262
sVrank
p1917
I1
sasVtimeline
p1918
(dp1919
Vlane
p1920
VJUNGLE
p1921
sVcsDiffPerMinDeltas
p1922
(dp1923
VzeroToTen
p1924
F-0.6000000000000001
sVtenToTwenty
p1925
F0.6999999999999995
ssVgoldPerMinDeltas
p1926
(dp1927
VzeroToTen
p1928
F190.7
sVtenToTwenty
p1929
F381.1
ssVxpDiffPerMinDeltas
p1930
(dp1931
VzeroToTen
p1932
F-74.05000000000001
sVtenToTwenty
p1933
F115.50000000000003
ssVcreepsPerMinDeltas
p1934
(dp1935
VzeroToTen
p1936
F0.4
sVtenToTwenty
p1937
F3.0
ssVxpPerMinDeltas
p1938
(dp1939
VzeroToTen
p1940
F256.5
sVtenToTwenty
p1941
F450.9
ssVrole
p1942
VNONE
p1943
sVdamageTakenDiffPerMinDeltas
p1944
(dp1945
VzeroToTen
p1946
F159.50000000000003
sVtenToTwenty
p1947
F22.450000000000045
ssVdamageTakenPerMinDeltas
p1948
(dp1949
VzeroToTen
p1950
F901.0
sVtenToTwenty
p1951
F786.9000000000001
sssVstats
p1952
(dp1953
VneutralMinionsKilledTeamJungle
p1954
I27
sVtotalPlayerScore
p1955
I0
sVunrealKills
p1956
I0
sVobjectivePlayerScore
p1957
I0
sVtotalDamageDealt
p1958
I68354
sVmagicDamageDealtToChampions
p1959
I8422
sVlargestMultiKill
p1960
I1
sVlargestKillingSpree
p1961
I8
sVitem1
p1962
I3709
sVquadraKills
p1963
I0
sVmagicDamageTaken
p1964
I5300
sVtowerKills
p1965
I0
sVtotalTimeCrowdControlDealt
p1966
I556
sVwardsKilled
p1967
I0
sVfirstTowerAssist
p1968
I00
sVwinner
p1969
I01
sVfirstTowerKill
p1970
I00
sVitem2
p1971
I3024
sVitem3
p1972
I3047
sVitem0
p1973
I3143
sVfirstBloodAssist
p1974
I00
sVitem6
p1975
I0
sVwardsPlaced
p1976
I0
sVitem4
p1977
I1029
sVitem5
p1978
I3057
sVminionsKilled
p1979
I52
sVtripleKills
p1980
I0
sVneutralMinionsKilledEnemyJungle
p1981
I4
sVgoldEarned
p1982
I9783
sVmagicDamageDealt
p1983
I48748
sVkills
p1984
I8
sVdoubleKills
p1985
I0
sVfirstInhibitorKill
p1986
I00
sVtrueDamageTaken
p1987
I326
sVfirstBloodKill
p1988
I00
sVassists
p1989
I7
sVdeaths
p1990
I6
sVneutralMinionsKilled
p1991
I31
sVcombatPlayerScore
p1992
I0
sVvisionWardsBoughtInGame
p1993
I0
sVphysicalDamageDealtToChampions
p1994
I2207
sVgoldSpent
p1995
I9005
sVtrueDamageDealt
p1996
I4830
sVtrueDamageDealtToChampions
p1997
I860
sVchampLevel
p1998
I14
sVpentaKills
p1999
I0
sVfirstInhibitorAssist
p2000
I00
sVtotalHeal
p2001
I3987
sVphysicalDamageDealt
p2002
I14776
sVlargestCriticalStrike
p2003
I360
sVsightWardsBoughtInGame
p2004
I0
sVtotalDamageDealtToChampions
p2005
I11489
sVtotalUnitsHealed
p2006
I1
sVinhibitorKills
p2007
I0
sVtotalScoreRank
p2008
I0
sVtotalDamageTaken
p2009
I26773
sVkillingSprees
p2010
I1
sVphysicalDamageTaken
p2011
I21147
ssaa(lp2012
(I4
g495
tp2013
a(I5
g499
tp2014
a(I6
g497
tp2015
aaa(lp2016
(dp2017
g3
VSevenSeaSerpent
p2018
sg5
I518616745
sg6
I01
sa(lp2019
(dp2020
Vspell1Id
p2021
I4
sVchampionId
p2022
I8
sVparticipantId
p2023
I4
sVrunes
p2024
(lp2025
(dp2026
VruneId
p2027
I5295
sVrank
p2028
I9
sa(dp2029
VruneId
p2030
I5316
sVrank
p2031
I9
sa(dp2032
VruneId
p2033
I5357
sVrank
p2034
I3
sa(dp2035
VruneId
p2036
I5402
sVrank
p2037
I9
sasVhighestAchievedSeasonTier
p2038
VGOLD
p2039
sVteamId
p2040
I200
sVspell2Id
p2041
I14
sVmasteries
p2042
(lp2043
(dp2044
VmasteryId
p2045
I4113
sVrank
p2046
I3
sa(dp2047
VmasteryId
p2048
I4114
sVrank
p2049
I1
sa(dp2050
VmasteryId
p2051
I4123
sVrank
p2052
I3
sa(dp2053
VmasteryId
p2054
I4124
sVrank
p2055
I1
sa(dp2056
VmasteryId
p2057
I4133
sVrank
p2058
I1
sa(dp2059
VmasteryId
p2060
I4134
sVrank
p2061
I3
sa(dp2062
VmasteryId
p2063
I4143
sVrank
p2064
I3
sa(dp2065
VmasteryId
p2066
I4144
sVrank
p2067
I1
sa(dp2068
VmasteryId
p2069
I4152
sVrank
p2070
I3
sa(dp2071
VmasteryId
p2072
I4154
sVrank
p2073
I1
sa(dp2074
VmasteryId
p2075
I4162
sVrank
p2076
I1
sa(dp2077
VmasteryId
p2078
I4211
sVrank
p2079
I2
sa(dp2080
VmasteryId
p2081
I4212
sVrank
p2082
I2
sa(dp2083
VmasteryId
p2084
I4221
sVrank
p2085
I1
sa(dp2086
VmasteryId
p2087
I4222
sVrank
p2088
I3
sa(dp2089
VmasteryId
p2090
I4232
sVrank
p2091
I1
sasVtimeline
p2092
(dp2093
Vlane
p2094
VJUNGLE
p2095
sVgoldPerMinDeltas
p2096
(dp2097
VzeroToTen
p2098
F243.5
sVtenToTwenty
p2099
F528.7
ssVcreepsPerMinDeltas
p2100
(dp2101
VzeroToTen
p2102
F5.699999999999999
sVtenToTwenty
p2103
F6.6
ssVxpPerMinDeltas
p2104
(dp2105
VzeroToTen
p2106
F380.5
sVtenToTwenty
p2107
F679.3
ssVrole
p2108
VNONE
p2109
sVdamageTakenPerMinDeltas
p2110
(dp2111
VzeroToTen
p2112
F344.9
sVtenToTwenty
p2113
F1023.4
sssVstats
p2114
(dp2115
VneutralMinionsKilledTeamJungle
p2116
I24
sVtotalPlayerScore
p2117
I0
sVunrealKills
p2118
I0
sVobjectivePlayerScore
p2119
I0
sVtotalDamageDealt
p2120
I158814
sVmagicDamageDealtToChampions
p2121
I15801
sVlargestMultiKill
p2122
I1
sVlargestKillingSpree
p2123
I6
sVitem1
p2124
I3020
sVquadraKills
p2125
I0
sVmagicDamageTaken
p2126
I6264
sVtowerKills
p2127
I0
sVtotalTimeCrowdControlDealt
p2128
I305
sVwardsKilled
p2129
I0
sVfirstTowerAssist
p2130
I00
sVwinner
p2131
I01
sVfirstTowerKill
p2132
I00
sVitem2
p2133
I3116
sVitem3
p2134
I0
sVitem0
p2135
I3152
sVfirstBloodAssist
p2136
I00
sVitem6
p2137
I0
sVwardsPlaced
p2138
I0
sVitem4
p2139
I0
sVitem5
p2140
I3090
sVminionsKilled
p2141
I151
sVtripleKills
p2142
I0
sVneutralMinionsKilledEnemyJungle
p2143
I12
sVgoldEarned
p2144
I11511
sVmagicDamageDealt
p2145
I141739
sVkills
p2146
I7
sVdoubleKills
p2147
I0
sVfirstInhibitorKill
p2148
I00
sVtrueDamageTaken
p2149
I612
sVfirstBloodKill
p2150
I00
sVassists
p2151
I3
sVdeaths
p2152
I3
sVneutralMinionsKilled
p2153
I36
sVcombatPlayerScore
p2154
I0
sVvisionWardsBoughtInGame
p2155
I0
sVphysicalDamageDealtToChampions
p2156
I820
sVgoldSpent
p2157
I10040
sVtrueDamageDealt
p2158
I536
sVtrueDamageDealtToChampions
p2159
I536
sVchampLevel
p2160
I15
sVpentaKills
p2161
I0
sVfirstInhibitorAssist
p2162
I01
sVtotalHeal
p2163
I12106
sVphysicalDamageDealt
p2164
I16539
sVlargestCriticalStrike
p2165
I0
sVsightWardsBoughtInGame
p2166
I0
sVtotalDamageDealtToChampions
p2167
I17158
sVtotalUnitsHealed
p2168
I1
sVinhibitorKills
p2169
I0
sVtotalScoreRank
p2170
I0
sVtotalDamageTaken
p2171
I20887
sVkillingSprees
p2172
I1
sVphysicalDamageTaken
p2173
I14010
ssa(dp2174
Vspell1Id
p2175
I4
sVchampionId
p2176
I79
sVparticipantId
p2177
I5
sVrunes
p2178
(lp2179
(dp2180
VruneId
p2181
I5245
sVrank
p2182
I9
sa(dp2183
VruneId
p2184
I5277
sVrank
p2185
I4
sa(dp2186
VruneId
p2187
I5289
sVrank
p2188
I5
sa(dp2189
VruneId
p2190
I5317
sVrank
p2191
I9
sa(dp2192
VruneId
p2193
I5337
sVrank
p2194
I3
sasVhighestAchievedSeasonTier
p2195
VGOLD
p2196
sVteamId
p2197
I200
sVspell2Id
p2198
I11
sVmasteries
p2199
(lp2200
(dp2201
VmasteryId
p2202
I4112
sVrank
p2203
I4
sa(dp2204
VmasteryId
p2205
I4114
sVrank
p2206
I1
sa(dp2207
VmasteryId
p2208
I4122
sVrank
p2209
I3
sa(dp2210
VmasteryId
p2211
I4132
sVrank
p2212
I1
sa(dp2213
VmasteryId
p2214
I4211
sVrank
p2215
I2
sa(dp2216
VmasteryId
p2217
I4213
sVrank
p2218
I2
sa(dp2219
VmasteryId
p2220
I4214
sVrank
p2221
I2
sa(dp2222
VmasteryId
p2223
I4221
sVrank
p2224
I1
sa(dp2225
VmasteryId
p2226
I4222
sVrank
p2227
I3
sa(dp2228
VmasteryId
p2229
I4231
sVrank
p2230
I1
sa(dp2231
VmasteryId
p2232
I4232
sVrank
p2233
I1
sa(dp2234
VmasteryId
p2235
I4233
sVrank
p2236
I3
sa(dp2237
VmasteryId
p2238
I4234
sVrank
p2239
I3
sa(dp2240
VmasteryId
p2241
I4243
sVrank
p2242
I1
sa(dp2243
VmasteryId
p2244
I4244
sVrank
p2245
I1
sa(dp2246
VmasteryId
p2247
I4262
sVrank
p2248
I1
sasVtimeline
p2249
(dp2250
Vlane
p2251
VJUNGLE
p2252
sVgoldPerMinDeltas
p2253
(dp2254
VzeroToTen
p2255
F245.89999999999998
sVtenToTwenty
p2256
F391.7
ssVcreepsPerMinDeltas
p2257
(dp2258
VzeroToTen
p2259
F0.2
sVtenToTwenty
p2260
F1.3
ssVxpPerMinDeltas
p2261
(dp2262
VzeroToTen
p2263
F320.7
sVtenToTwenty
p2264
F478.6
ssVrole
p2265
VNONE
p2266
sVdamageTakenPerMinDeltas
p2267
(dp2268
VzeroToTen
p2269
F754.5
sVtenToTwenty
p2270
F1258.4
sssVstats
p2271
(dp2272
VneutralMinionsKilledTeamJungle
p2273
I43
sVtotalPlayerScore
p2274
I0
sVunrealKills
p2275
I0
sVobjectivePlayerScore
p2276
I0
sVtotalDamageDealt
p2277
I77852
sVmagicDamageDealtToChampions
p2278
I8509
sVlargestMultiKill
p2279
I1
sVlargestKillingSpree
p2280
I3
sVitem1
p2281
I3111
sVquadraKills
p2282
I0
sVmagicDamageTaken
p2283
I5738
sVtowerKills
p2284
I1
sVtotalTimeCrowdControlDealt
p2285
I330
sVwardsKilled
p2286
I0
sVfirstTowerAssist
p2287
I00
sVwinner
p2288
I01
sVfirstTowerKill
p2289
I00
sVitem2
p2290
I3065
sVitem3
p2291
I1026
sVitem0
p2292
I3709
sVfirstBloodAssist
p2293
I00
sVitem6
p2294
I0
sVwardsPlaced
p2295
I0
sVitem4
p2296
I1052
sVitem5
p2297
I2003
sVminionsKilled
p2298
I20
sVtripleKills
p2299
I0
sVneutralMinionsKilledEnemyJungle
p2300
I0
sVgoldEarned
p2301
I9145
sVmagicDamageDealt
p2302
I51891
sVkills
p2303
I3
sVdoubleKills
p2304
I0
sVfirstInhibitorKill
p2305
I01
sVtrueDamageTaken
p2306
I408
sVfirstBloodKill
p2307
I00
sVassists
p2308
I7
sVdeaths
p2309
I5
sVneutralMinionsKilled
p2310
I43
sVcombatPlayerScore
p2311
I0
sVvisionWardsBoughtInGame
p2312
I0
sVphysicalDamageDealtToChampions
p2313
I1433
sVgoldSpent
p2314
I8125
sVtrueDamageDealt
p2315
I7222
sVtrueDamageDealtToChampions
p2316
I436
sVchampLevel
p2317
I14
sVpentaKills
p2318
I0
sVfirstInhibitorAssist
p2319
I00
sVtotalHeal
p2320
I4068
sVphysicalDamageDealt
p2321
I18738
sVlargestCriticalStrike
p2322
I360
sVsightWardsBoughtInGame
p2323
I0
sVtotalDamageDealtToChampions
p2324
I10378
sVtotalUnitsHealed
p2325
I1
sVinhibitorKills
p2326
I1
sVtotalScoreRank
p2327
I0
sVtotalDamageTaken
p2328
I26883
sVkillingSprees
p2329
I1
sVphysicalDamageTaken
p2330
I20736
ssa(dp2331
Vspell1Id
p2332
I4
sVchampionId
p2333
I150
sVparticipantId
p2334
I6
sVrunes
p2335
(lp2336
(dp2337
VruneId
p2338
I5245
sVrank
p2339
I9
sa(dp2340
VruneId
p2341
I5277
sVrank
p2342
I4
sa(dp2343
VruneId
p2344
I5289
sVrank
p2345
I5
sa(dp2346
VruneId
p2347
I5317
sVrank
p2348
I9
sa(dp2349
VruneId
p2350
I5337
sVrank
p2351
I3
sasVhighestAchievedSeasonTier
p2352
VGOLD
p2353
sVteamId
p2354
I200
sVspell2Id
p2355
I14
sVmasteries
p2356
(lp2357
(dp2358
VmasteryId
p2359
I4112
sVrank
p2360
I4
sa(dp2361
VmasteryId
p2362
I4114
sVrank
p2363
I1
sa(dp2364
VmasteryId
p2365
I4121
sVrank
p2366
I1
sa(dp2367
VmasteryId
p2368
I4122
sVrank
p2369
I3
sa(dp2370
VmasteryId
p2371
I4124
sVrank
p2372
I1
sa(dp2373
VmasteryId
p2374
I4131
sVrank
p2375
I1
sa(dp2376
VmasteryId
p2377
I4132
sVrank
p2378
I1
sa(dp2379
VmasteryId
p2380
I4134
sVrank
p2381
I3
sa(dp2382
VmasteryId
p2383
I4141
sVrank
p2384
I1
sa(dp2385
VmasteryId
p2386
I4144
sVrank
p2387
I1
sa(dp2388
VmasteryId
p2389
I4152
sVrank
p2390
I3
sa(dp2391
VmasteryId
p2392
I4162
sVrank
p2393
I1
sa(dp2394
VmasteryId
p2395
I4211
sVrank
p2396
I2
sa(dp2397
VmasteryId
p2398
I4212
sVrank
p2399
I2
sa(dp2400
VmasteryId
p2401
I4221
sVrank
p2402
I1
sa(dp2403
VmasteryId
p2404
I4222
sVrank
p2405
I3
sa(dp2406
VmasteryId
p2407
I4232
sVrank
p2408
I1
sasVtimeline
p2409
(dp2410
Vlane
p2411
VMIDDLE
p2412
sVgoldPerMinDeltas
p2413
(dp2414
VzeroToTen
p2415
F258.0
sVtenToTwenty
p2416
F381.20000000000005
ssVcreepsPerMinDeltas
p2417
(dp2418
VzeroToTen
p2419
F6.1
sVtenToTwenty
p2420
F5.0
ssVxpPerMinDeltas
p2421
(dp2422
VzeroToTen
p2423
F398.6
sVtenToTwenty
p2424
F517.3
ssVrole
p2425
VSOLO
p2426
sVdamageTakenPerMinDeltas
p2427
(dp2428
VzeroToTen
p2429
F543.2
sVtenToTwenty
p2430
F825.5
sssVstats
p2431
(dp2432
VneutralMinionsKilledTeamJungle
p2433
I2
sVtotalPlayerScore
p2434
I0
sVunrealKills
p2435
I0
sVobjectivePlayerScore
p2436
I0
sVtotalDamageDealt
p2437
I81623
sVmagicDamageDealtToChampions
p2438
I1686
sVlargestMultiKill
p2439
I1
sVlargestKillingSpree
p2440
I0
sVitem1
p2441
I3143
sVquadraKills
p2442
I0
sVmagicDamageTaken
p2443
I4041
sVtowerKills
p2444
I2
sVtotalTimeCrowdControlDealt
p2445
I553
sVwardsKilled
p2446
I0
sVfirstTowerAssist
p2447
I00
sVwinner
p2448
I01
sVfirstTowerKill
p2449
I00
sVitem2
p2450
I3111
sVitem3
p2451
I3065
sVitem0
p2452
I2003
sVfirstBloodAssist
p2453
I00
sVitem6
p2454
I0
sVwardsPlaced
p2455
I0
sVitem4
p2456
I3044
sVitem5
p2457
I1042
sVminionsKilled
p2458
I138
sVtripleKills
p2459
I0
sVneutralMinionsKilledEnemyJungle
p2460
I7
sVgoldEarned
p2461
I9223
sVmagicDamageDealt
p2462
I8662
sVkills
p2463
I2
sVdoubleKills
p2464
I0
sVfirstInhibitorKill
p2465
I00
sVtrueDamageTaken
p2466
I842
sVfirstBloodKill
p2467
I00
sVassists
p2468
I6
sVdeaths
p2469
I4
sVneutralMinionsKilled
p2470
I9
sVcombatPlayerScore
p2471
I0
sVvisionWardsBoughtInGame
p2472
I0
sVphysicalDamageDealtToChampions
p2473
I12588
sVgoldSpent
p2474
I8855
sVtrueDamageDealt
p2475
I900
sVtrueDamageDealtToChampions
p2476
I900
sVchampLevel
p2477
I14
sVpentaKills
p2478
I0
sVfirstInhibitorAssist
p2479
I00
sVtotalHeal
p2480
I1021
sVphysicalDamageDealt
p2481
I72060
sVlargestCriticalStrike
p2482
I224
sVsightWardsBoughtInGame
p2483
I0
sVtotalDamageDealtToChampions
p2484
I15175
sVtotalUnitsHealed
p2485
I1
sVinhibitorKills
p2486
I0
sVtotalScoreRank
p2487
I0
sVtotalDamageTaken
p2488
I16986
sVkillingSprees
p2489
I0
sVphysicalDamageTaken
p2490
I12103
ssaa(lp2491
(I4
g495
tp2492
a(I5
g497
tp2493
a(I6
g499
tp2494
aaa(lp2495
(dp2496
g3
VWe want WIN
p2497
sg5
I518613411
sg6
I01
sa(lp2498
(dp2499
Vspell1Id
p2500
I4
sVchampionId
p2501
I8
sVparticipantId
p2502
I4
sVrunes
p2503
(lp2504
(dp2505
VruneId
p2506
I5295
sVrank
p2507
I9
sa(dp2508
VruneId
p2509
I5316
sVrank
p2510
I9
sa(dp2511
VruneId
p2512
I5357
sVrank
p2513
I3
sa(dp2514
VruneId
p2515
I5402
sVrank
p2516
I9
sasVhighestAchievedSeasonTier
p2517
VGOLD
p2518
sVteamId
p2519
I200
sVspell2Id
p2520
I14
sVmasteries
p2521
(lp2522
(dp2523
VmasteryId
p2524
I4113
sVrank
p2525
I3
sa(dp2526
VmasteryId
p2527
I4114
sVrank
p2528
I1
sa(dp2529
VmasteryId
p2530
I4123
sVrank
p2531
I3
sa(dp2532
VmasteryId
p2533
I4124
sVrank
p2534
I1
sa(dp2535
VmasteryId
p2536
I4133
sVrank
p2537
I1
sa(dp2538
VmasteryId
p2539
I4134
sVrank
p2540
I3
sa(dp2541
VmasteryId
p2542
I4143
sVrank
p2543
I3
sa(dp2544
VmasteryId
p2545
I4144
sVrank
p2546
I1
sa(dp2547
VmasteryId
p2548
I4152
sVrank
p2549
I3
sa(dp2550
VmasteryId
p2551
I4154
sVrank
p2552
I1
sa(dp2553
VmasteryId
p2554
I4162
sVrank
p2555
I1
sa(dp2556
VmasteryId
p2557
I4211
sVrank
p2558
I2
sa(dp2559
VmasteryId
p2560
I4212
sVrank
p2561
I2
sa(dp2562
VmasteryId
p2563
I4221
sVrank
p2564
I1
sa(dp2565
VmasteryId
p2566
I4222
sVrank
p2567
I3
sa(dp2568
VmasteryId
p2569
I4232
sVrank
p2570
I1
sasVtimeline
p2571
(dp2572
Vlane
p2573
VBOTTOM
p2574
sVgoldPerMinDeltas
p2575
(dp2576
VzeroToTen
p2577
F261.5
sVtenToTwenty
p2578
F560.5
ssVcreepsPerMinDeltas
p2579
(dp2580
VzeroToTen
p2581
F6.5
sVtenToTwenty
p2582
F9.2
ssVxpPerMinDeltas
p2583
(dp2584
VzeroToTen
p2585
F387.29999999999995
sVtenToTwenty
p2586
F665.7
ssVrole
p2587
VSOLO
p2588
sVdamageTakenPerMinDeltas
p2589
(dp2590
VzeroToTen
p2591
F438.1
sVtenToTwenty
p2592
F987.3
sssVstats
p2593
(dp2594
VneutralMinionsKilledTeamJungle
p2595
I9
sVtotalPlayerScore
p2596
I0
sVunrealKills
p2597
I0
sVobjectivePlayerScore
p2598
I0
sVtotalDamageDealt
p2599
I129680
sVmagicDamageDealtToChampions
p2600
I12621
sVlargestMultiKill
p2601
I2
sVlargestKillingSpree
p2602
I6
sVitem1
p2603
I1056
sVquadraKills
p2604
I0
sVmagicDamageTaken
p2605
I9890
sVtowerKills
p2606
I0
sVtotalTimeCrowdControlDealt
p2607
I272
sVwardsKilled
p2608
I0
sVfirstTowerAssist
p2609
I01
sVwinner
p2610
I01
sVfirstTowerKill
p2611
I00
sVitem2
p2612
I3152
sVitem3
p2613
I3020
sVitem0
p2614
I1056
sVfirstBloodAssist
p2615
I00
sVitem6
p2616
I0
sVwardsPlaced
p2617
I0
sVitem4
p2618
I3116
sVitem5
p2619
I1026
sVminionsKilled
p2620
I183
sVtripleKills
p2621
I0
sVneutralMinionsKilledEnemyJungle
p2622
I6
sVgoldEarned
p2623
I10574
sVmagicDamageDealt
p2624
I120188
sVkills
p2625
I7
sVdoubleKills
p2626
I1
sVfirstInhibitorKill
p2627
I00
sVtrueDamageTaken
p2628
I400
sVfirstBloodKill
p2629
I00
sVassists
p2630
I5
sVdeaths
p2631
I1
sVneutralMinionsKilled
p2632
I15
sVcombatPlayerScore
p2633
I0
sVvisionWardsBoughtInGame
p2634
I0
sVphysicalDamageDealtToChampions
p2635
I538
sVgoldSpent
p2636
I8195
sVtrueDamageDealt
p2637
I1010
sVtrueDamageDealtToChampions
p2638
I1010
sVchampLevel
p2639
I15
sVpentaKills
p2640
I0
sVfirstInhibitorAssist
p2641
I00
sVtotalHeal
p2642
I11248
sVphysicalDamageDealt
p2643
I8482
sVlargestCriticalStrike
p2644
I0
sVsightWardsBoughtInGame
p2645
I0
sVtotalDamageDealtToChampions
p2646
I14170
sVtotalUnitsHealed
p2647
I1
sVinhibitorKills
p2648
I0
sVtotalScoreRank
p2649
I0
sVtotalDamageTaken
p2650
I16716
sVkillingSprees
p2651
I1
sVphysicalDamageTaken
p2652
I6425
ssa(dp2653
Vspell1Id
p2654
I4
sVchampionId
p2655
I150
sVparticipantId
p2656
I5
sVrunes
p2657
(lp2658
(dp2659
VruneId
p2660
I5245
sVrank
p2661
I9
sa(dp2662
VruneId
p2663
I5277
sVrank
p2664
I4
sa(dp2665
VruneId
p2666
I5289
sVrank
p2667
I5
sa(dp2668
VruneId
p2669
I5317
sVrank
p2670
I9
sa(dp2671
VruneId
p2672
I5337
sVrank
p2673
I3
sasVhighestAchievedSeasonTier
p2674
VGOLD
p2675
sVteamId
p2676
I200
sVspell2Id
p2677
I14
sVmasteries
p2678
(lp2679
(dp2680
VmasteryId
p2681
I4112
sVrank
p2682
I4
sa(dp2683
VmasteryId
p2684
I4114
sVrank
p2685
I1
sa(dp2686
VmasteryId
p2687
I4121
sVrank
p2688
I1
sa(dp2689
VmasteryId
p2690
I4122
sVrank
p2691
I3
sa(dp2692
VmasteryId
p2693
I4124
sVrank
p2694
I1
sa(dp2695
VmasteryId
p2696
I4131
sVrank
p2697
I1
sa(dp2698
VmasteryId
p2699
I4132
sVrank
p2700
I1
sa(dp2701
VmasteryId
p2702
I4134
sVrank
p2703
I3
sa(dp2704
VmasteryId
p2705
I4141
sVrank
p2706
I1
sa(dp2707
VmasteryId
p2708
I4144
sVrank
p2709
I1
sa(dp2710
VmasteryId
p2711
I4152
sVrank
p2712
I3
sa(dp2713
VmasteryId
p2714
I4162
sVrank
p2715
I1
sa(dp2716
VmasteryId
p2717
I4211
sVrank
p2718
I2
sa(dp2719
VmasteryId
p2720
I4212
sVrank
p2721
I2
sa(dp2722
VmasteryId
p2723
I4221
sVrank
p2724
I1
sa(dp2725
VmasteryId
p2726
I4222
sVrank
p2727
I3
sa(dp2728
VmasteryId
p2729
I4232
sVrank
p2730
I1
sasVtimeline
p2731
(dp2732
Vlane
p2733
VMIDDLE
p2734
sVcsDiffPerMinDeltas
p2735
(dp2736
VzeroToTen
p2737
F3.4000000000000004
sVtenToTwenty
p2738
F3.4
ssVgoldPerMinDeltas
p2739
(dp2740
VzeroToTen
p2741
F247.0
sVtenToTwenty
p2742
F395.7
ssVxpDiffPerMinDeltas
p2743
(dp2744
VzeroToTen
p2745
F39.50000000000003
sVtenToTwenty
p2746
F167.49999999999997
ssVcreepsPerMinDeltas
p2747
(dp2748
VzeroToTen
p2749
F6.300000000000001
sVtenToTwenty
p2750
F6.4
ssVxpPerMinDeltas
p2751
(dp2752
VzeroToTen
p2753
F419.4
sVtenToTwenty
p2754
F523.8
ssVrole
p2755
VSOLO
p2756
sVdamageTakenDiffPerMinDeltas
p2757
(dp2758
VzeroToTen
p2759
F77.90000000000003
sVtenToTwenty
p2760
F358.2
ssVdamageTakenPerMinDeltas
p2761
(dp2762
VzeroToTen
p2763
F402.20000000000005
sVtenToTwenty
p2764
F907.5
sssVstats
p2765
(dp2766
VneutralMinionsKilledTeamJungle
p2767
I4
sVtotalPlayerScore
p2768
I0
sVunrealKills
p2769
I0
sVobjectivePlayerScore
p2770
I0
sVtotalDamageDealt
p2771
I80653
sVmagicDamageDealtToChampions
p2772
I2048
sVlargestMultiKill
p2773
I1
sVlargestKillingSpree
p2774
I2
sVitem1
p2775
I3111
sVquadraKills
p2776
I0
sVmagicDamageTaken
p2777
I8360
sVtowerKills
p2778
I0
sVtotalTimeCrowdControlDealt
p2779
I431
sVwardsKilled
p2780
I0
sVfirstTowerAssist
p2781
I01
sVwinner
p2782
I01
sVfirstTowerKill
p2783
I00
sVitem2
p2784
I3065
sVitem3
p2785
I2003
sVitem0
p2786
I3078
sVfirstBloodAssist
p2787
I00
sVitem6
p2788
I0
sVwardsPlaced
p2789
I0
sVitem4
p2790
I0
sVitem5
p2791
I0
sVminionsKilled
p2792
I150
sVtripleKills
p2793
I0
sVneutralMinionsKilledEnemyJungle
p2794
I0
sVgoldEarned
p2795
I9390
sVmagicDamageDealt
p2796
I7386
sVkills
p2797
I3
sVdoubleKills
p2798
I0
sVfirstInhibitorKill
p2799
I00
sVtrueDamageTaken
p2800
I1022
sVfirstBloodKill
p2801
I00
sVassists
p2802
I11
sVdeaths
p2803
I3
sVneutralMinionsKilled
p2804
I4
sVcombatPlayerScore
p2805
I0
sVvisionWardsBoughtInGame
p2806
I0
sVphysicalDamageDealtToChampions
p2807
I15379
sVgoldSpent
p2808
I8178
sVtrueDamageDealt
p2809
I924
sVtrueDamageDealtToChampions
p2810
I924
sVchampLevel
p2811
I14
sVpentaKills
p2812
I0
sVfirstInhibitorAssist
p2813
I00
sVtotalHeal
p2814
I1084
sVphysicalDamageDealt
p2815
I72343
sVlargestCriticalStrike
p2816
I359
sVsightWardsBoughtInGame
p2817
I0
sVtotalDamageDealtToChampions
p2818
I18351
sVtotalUnitsHealed
p2819
I1
sVinhibitorKills
p2820
I0
sVtotalScoreRank
p2821
I0
sVtotalDamageTaken
p2822
I16328
sVkillingSprees
p2823
I1
sVphysicalDamageTaken
p2824
I6946
ssa(dp2825
Vspell1Id
p2826
I4
sVchampionId
p2827
I64
sVparticipantId
p2828
I6
sVrunes
p2829
(lp2830
(dp2831
VruneId
p2832
I5245
sVrank
p2833
I9
sa(dp2834
VruneId
p2835
I5289
sVrank
p2836
I9
sa(dp2837
VruneId
p2838
I5317
sVrank
p2839
I4
sa(dp2840
VruneId
p2841
I5318
sVrank
p2842
I5
sa(dp2843
VruneId
p2844
I5335
sVrank
p2845
I3
sasVhighestAchievedSeasonTier
p2846
VGOLD
p2847
sVteamId
p2848
I200
sVspell2Id
p2849
I11
sVmasteries
p2850
(lp2851
(dp2852
VmasteryId
p2853
I4111
sVrank
p2854
I1
sa(dp2855
VmasteryId
p2856
I4113
sVrank
p2857
I4
sa(dp2858
VmasteryId
p2859
I4121
sVrank
p2860
I1
sa(dp2861
VmasteryId
p2862
I4122
sVrank
p2863
I3
sa(dp2864
VmasteryId
p2865
I4131
sVrank
p2866
I1
sa(dp2867
VmasteryId
p2868
I4132
sVrank
p2869
I1
sa(dp2870
VmasteryId
p2871
I4134
sVrank
p2872
I3
sa(dp2873
VmasteryId
p2874
I4141
sVrank
p2875
I1
sa(dp2876
VmasteryId
p2877
I4142
sVrank
p2878
I1
sa(dp2879
VmasteryId
p2880
I4144
sVrank
p2881
I1
sa(dp2882
VmasteryId
p2883
I4152
sVrank
p2884
I3
sa(dp2885
VmasteryId
p2886
I4162
sVrank
p2887
I1
sa(dp2888
VmasteryId
p2889
I4211
sVrank
p2890
I2
sa(dp2891
VmasteryId
p2892
I4214
sVrank
p2893
I2
sa(dp2894
VmasteryId
p2895
I4222
sVrank
p2896
I3
sa(dp2897
VmasteryId
p2898
I4224
sVrank
p2899
I1
sa(dp2900
VmasteryId
p2901
I4232
sVrank
p2902
I1
sasVtimeline
p2903
(dp2904
Vlane
p2905
VJUNGLE
p2906
sVgoldPerMinDeltas
p2907
(dp2908
VzeroToTen
p2909
F249.0
sVtenToTwenty
p2910
F324.5
ssVcreepsPerMinDeltas
p2911
(dp2912
VzeroToTen
p2913
F0.2
sVtenToTwenty
p2914
F0.6
ssVxpPerMinDeltas
p2915
(dp2916
VzeroToTen
p2917
F329.79999999999995
sVtenToTwenty
p2918
F458.0
ssVrole
p2919
VNONE
p2920
sVdamageTakenPerMinDeltas
p2921
(dp2922
VzeroToTen
p2923
F711.0
sVtenToTwenty
p2924
F984.4
sssVstats
p2925
(dp2926
VneutralMinionsKilledTeamJungle
p2927
I42
sVtotalPlayerScore
p2928
I0
sVunrealKills
p2929
I0
sVobjectivePlayerScore
p2930
I0
sVtotalDamageDealt
p2931
I68614
sVmagicDamageDealtToChampions
p2932
I1198
sVlargestMultiKill
p2933
I2
sVlargestKillingSpree
p2934
I3
sVitem1
p2935
I3065
sVquadraKills
p2936
I0
sVmagicDamageTaken
p2937
I6552
sVtowerKills
p2938
I1
sVtotalTimeCrowdControlDealt
p2939
I221
sVwardsKilled
p2940
I0
sVfirstTowerAssist
p2941
I00
sVwinner
p2942
I01
sVfirstTowerKill
p2943
I01
sVitem2
p2944
I3111
sVitem3
p2945
I3211
sVitem0
p2946
I3707
sVfirstBloodAssist
p2947
I00
sVitem6
p2948
I0
sVwardsPlaced
p2949
I0
sVitem4
p2950
I0
sVitem5
p2951
I0
sVminionsKilled
p2952
I13
sVtripleKills
p2953
I0
sVneutralMinionsKilledEnemyJungle
p2954
I1
sVgoldEarned
p2955
I8140
sVmagicDamageDealt
p2956
I15053
sVkills
p2957
I5
sVdoubleKills
p2958
I1
sVfirstInhibitorKill
p2959
I00
sVtrueDamageTaken
p2960
I1552
sVfirstBloodKill
p2961
I00
sVassists
p2962
I8
sVdeaths
p2963
I5
sVneutralMinionsKilled
p2964
I43
sVcombatPlayerScore
p2965
I0
sVvisionWardsBoughtInGame
p2966
I0
sVphysicalDamageDealtToChampions
p2967
I6452
sVgoldSpent
p2968
I7960
sVtrueDamageDealt
p2969
I6108
sVtrueDamageDealtToChampions
p2970
I388
sVchampLevel
p2971
I13
sVpentaKills
p2972
I0
sVfirstInhibitorAssist
p2973
I00
sVtotalHeal
p2974
I897
sVphysicalDamageDealt
p2975
I47453
sVlargestCriticalStrike
p2976
I0
sVsightWardsBoughtInGame
p2977
I0
sVtotalDamageDealtToChampions
p2978
I8038
sVtotalUnitsHealed
p2979
I1
sVinhibitorKills
p2980
I0
sVtotalScoreRank
p2981
I0
sVtotalDamageTaken
p2982
I21659
sVkillingSprees
p2983
I1
sVphysicalDamageTaken
p2984
I13554
ssaa(lp2985
(I4
g495
tp2986
a(I5
g499
tp2987
a(I6
g497
tp2988
aaa(lp2989
(dp2990
g3
Vtrollzinhos
p2991
sg5
I517905385
sg6
I00
sa(lp2992
(dp2993
Vspell1Id
p2994
I4
sVchampionId
p2995
I61
sVparticipantId
p2996
I6
sVrunes
p2997
(lp2998
(dp2999
VruneId
p3000
I5273
sVrank
p3001
I9
sa(dp3002
VruneId
p3003
I5289
sVrank
p3004
I9
sa(dp3005
VruneId
p3006
I5315
sVrank
p3007
I9
sa(dp3008
VruneId
p3009
I5357
sVrank
p3010
I3
sasVhighestAchievedSeasonTier
p3011
VGOLD
p3012
sVteamId
p3013
I200
sVspell2Id
p3014
I14
sVmasteries
p3015
(lp3016
(dp3017
VmasteryId
p3018
I4113
sVrank
p3019
I3
sa(dp3020
VmasteryId
p3021
I4114
sVrank
p3022
I1
sa(dp3023
VmasteryId
p3024
I4123
sVrank
p3025
I3
sa(dp3026
VmasteryId
p3027
I4124
sVrank
p3028
I1
sa(dp3029
VmasteryId
p3030
I4133
sVrank
p3031
I1
sa(dp3032
VmasteryId
p3033
I4134
sVrank
p3034
I3
sa(dp3035
VmasteryId
p3036
I4143
sVrank
p3037
I3
sa(dp3038
VmasteryId
p3039
I4144
sVrank
p3040
I1
sa(dp3041
VmasteryId
p3042
I4152
sVrank
p3043
I3
sa(dp3044
VmasteryId
p3045
I4154
sVrank
p3046
I1
sa(dp3047
VmasteryId
p3048
I4162
sVrank
p3049
I1
sa(dp3050
VmasteryId
p3051
I4311
sVrank
p3052
I1
sa(dp3053
VmasteryId
p3054
I4313
sVrank
p3055
I3
sa(dp3056
VmasteryId
p3057
I4322
sVrank
p3058
I3
sa(dp3059
VmasteryId
p3060
I4324
sVrank
p3061
I1
sa(dp3062
VmasteryId
p3063
I4334
sVrank
p3064
I1
sasVtimeline
p3065
(dp3066
Vlane
p3067
VMIDDLE
p3068
sVcsDiffPerMinDeltas
p3069
(dp3070
VthirtyToEnd
p3071
F2.0
sVtwentyToThirty
p3072
F0.8999999999999999
sVzeroToTen
p3073
F2.0
sVtenToTwenty
p3074
F-3.9
ssVgoldPerMinDeltas
p3075
(dp3076
VthirtyToEnd
p3077
F301.4
sVtwentyToThirty
p3078
F429.2
sVzeroToTen
p3079
F350.6
sVtenToTwenty
p3080
F273.0
ssVxpDiffPerMinDeltas
p3081
(dp3082
VthirtyToEnd
p3083
F-80.5
sVtwentyToThirty
p3084
F156.9
sVzeroToTen
p3085
F54.10000000000002
sVtenToTwenty
p3086
F-105.9
ssVcreepsPerMinDeltas
p3087
(dp3088
VthirtyToEnd
p3089
F5.6
sVtwentyToThirty
p3090
F6.8
sVzeroToTen
p3091
F7.199999999999999
sVtenToTwenty
p3092
F4.5
ssVxpPerMinDeltas
p3093
(dp3094
VthirtyToEnd
p3095
F372.1
sVtwentyToThirty
p3096
F551.1
sVzeroToTen
p3097
F453.40000000000003
sVtenToTwenty
p3098
F294.79999999999995
ssVrole
p3099
VSOLO
p3100
sVdamageTakenDiffPerMinDeltas
p3101
(dp3102
VthirtyToEnd
p3103
F158.69999999999996
sVtwentyToThirty
p3104
F46.0
sVzeroToTen
p3105
F-4.299999999999997
sVtenToTwenty
p3106
F1.8999999999999773
ssVdamageTakenPerMinDeltas
p3107
(dp3108
VthirtyToEnd
p3109
F772.3
sVtwentyToThirty
p3110
F638.7
sVzeroToTen
p3111
F294.7
sVtenToTwenty
p3112
F610.2
sssVstats
p3113
(dp3114
VneutralMinionsKilledTeamJungle
p3115
I17
sVtotalPlayerScore
p3116
I0
sVunrealKills
p3117
I0
sVobjectivePlayerScore
p3118
I0
sVtotalDamageDealt
p3119
I219726
sVmagicDamageDealtToChampions
p3120
I22549
sVlargestMultiKill
p3121
I2
sVlargestKillingSpree
p3122
I4
sVitem1
p3123
I3174
sVquadraKills
p3124
I0
sVmagicDamageTaken
p3125
I17402
sVtowerKills
p3126
I1
sVtotalTimeCrowdControlDealt
p3127
I1419
sVwardsKilled
p3128
I2
sVfirstTowerAssist
p3129
I00
sVwinner
p3130
I00
sVfirstTowerKill
p3131
I00
sVitem2
p3132
I3255
sVitem3
p3133
I3135
sVitem0
p3134
I3157
sVfirstBloodAssist
p3135
I00
sVitem6
p3136
I3340
sVwardsPlaced
p3137
I8
sVitem4
p3138
I3089
sVitem5
p3139
I1033
sVminionsKilled
p3140
I250
sVtripleKills
p3141
I0
sVneutralMinionsKilledEnemyJungle
p3142
I1
sVgoldEarned
p3143
I14956
sVmagicDamageDealt
p3144
I198319
sVkills
p3145
I8
sVdoubleKills
p3146
I2
sVfirstInhibitorKill
p3147
I00
sVtrueDamageTaken
p3148
I674
sVfirstBloodKill
p3149
I00
sVassists
p3150
I6
sVdeaths
p3151
I12
sVneutralMinionsKilled
p3152
I18
sVcombatPlayerScore
p3153
I0
sVvisionWardsBoughtInGame
p3154
I1
sVphysicalDamageDealtToChampions
p3155
I1242
sVgoldSpent
p3156
I14350
sVtrueDamageDealt
p3157
I690
sVtrueDamageDealtToChampions
p3158
I690
sVchampLevel
p3159
I17
sVpentaKills
p3160
I0
sVfirstInhibitorAssist
p3161
I00
sVtotalHeal
p3162
I2446
sVphysicalDamageDealt
p3163
I20717
sVlargestCriticalStrike
p3164
I0
sVsightWardsBoughtInGame
p3165
I1
sVtotalDamageDealtToChampions
p3166
I24482
sVtotalUnitsHealed
p3167
I1
sVinhibitorKills
p3168
I0
sVtotalScoreRank
p3169
I0
sVtotalDamageTaken
p3170
I26875
sVkillingSprees
p3171
I2
sVphysicalDamageTaken
p3172
I8798
ssa(dp3173
Vspell1Id
p3174
I4
sVchampionId
p3175
I64
sVparticipantId
p3176
I7
sVrunes
p3177
(lp3178
(dp3179
VruneId
p3180
I5245
sVrank
p3181
I9
sa(dp3182
VruneId
p3183
I5289
sVrank
p3184
I9
sa(dp3185
VruneId
p3186
I5317
sVrank
p3187
I9
sa(dp3188
VruneId
p3189
I5335
sVrank
p3190
I2
sa(dp3191
VruneId
p3192
I5337
sVrank
p3193
I1
sasVhighestAchievedSeasonTier
p3194
VGOLD
p3195
sVteamId
p3196
I200
sVspell2Id
p3197
I11
sVmasteries
p3198
(lp3199
(dp3200
VmasteryId
p3201
I4112
sVrank
p3202
I4
sa(dp3203
VmasteryId
p3204
I4113
sVrank
p3205
I4
sa(dp3206
VmasteryId
p3207
I4122
sVrank
p3208
I3
sa(dp3209
VmasteryId
p3210
I4132
sVrank
p3211
I1
sa(dp3212
VmasteryId
p3213
I4134
sVrank
p3214
I3
sa(dp3215
VmasteryId
p3216
I4142
sVrank
p3217
I3
sa(dp3218
VmasteryId
p3219
I4152
sVrank
p3220
I2
sa(dp3221
VmasteryId
p3222
I4162
sVrank
p3223
I1
sa(dp3224
VmasteryId
p3225
I4211
sVrank
p3226
I2
sa(dp3227
VmasteryId
p3228
I4213
sVrank
p3229
I2
sa(dp3230
VmasteryId
p3231
I4221
sVrank
p3232
I1
sa(dp3233
VmasteryId
p3234
I4222
sVrank
p3235
I3
sa(dp3236
VmasteryId
p3237
I4232
sVrank
p3238
I1
sasVtimeline
p3239
(dp3240
Vlane
p3241
VJUNGLE
p3242
sVcsDiffPerMinDeltas
p3243
(dp3244
VthirtyToEnd
p3245
F-1.1
sVtwentyToThirty
p3246
F0.7000000000000002
sVzeroToTen
p3247
F-0.1
sVtenToTwenty
p3248
F0.4000000000000001
ssVgoldPerMinDeltas
p3249
(dp3250
VthirtyToEnd
p3251
F181.3
sVtwentyToThirty
p3252
F335.6
sVzeroToTen
p3253
F297.20000000000005
sVtenToTwenty
p3254
F381.1
ssVxpDiffPerMinDeltas
p3255
(dp3256
VthirtyToEnd
p3257
F-250.5
sVtwentyToThirty
p3258
F14.80000000000004
sVzeroToTen
p3259
F67.1
sVtenToTwenty
p3260
F62.70000000000002
ssVcreepsPerMinDeltas
p3261
(dp3262
VthirtyToEnd
p3263
F0.1
sVtwentyToThirty
p3264
F2.2
sVzeroToTen
p3265
F0.1
sVtenToTwenty
p3266
F1.1
ssVxpPerMinDeltas
p3267
(dp3268
VthirtyToEnd
p3269
F124.19999999999999
sVtwentyToThirty
p3270
F466.8
sVzeroToTen
p3271
F319.2
sVtenToTwenty
p3272
F394.4
ssVrole
p3273
VNONE
p3274
sVdamageTakenDiffPerMinDeltas
p3275
(dp3276
VthirtyToEnd
p3277
F-285.79999999999995
sVtwentyToThirty
p3278
F137.4999999999999
sVzeroToTen
p3279
F113.19999999999999
sVtenToTwenty
p3280
F330.4999999999999
ssVdamageTakenPerMinDeltas
p3281
(dp3282
VthirtyToEnd
p3283
F1127.0
sVtwentyToThirty
p3284
F1397.9
sVzeroToTen
p3285
F635.7
sVtenToTwenty
p3286
F1185.6999999999998
sssVstats
p3287
(dp3288
VneutralMinionsKilledTeamJungle
p3289
I63
sVtotalPlayerScore
p3290
I0
sVunrealKills
p3291
I0
sVobjectivePlayerScore
p3292
I0
sVtotalDamageDealt
p3293
I144197
sVmagicDamageDealtToChampions
p3294
I3198
sVlargestMultiKill
p3295
I1
sVlargestKillingSpree
p3296
I4
sVitem1
p3297
I2049
sVquadraKills
p3298
I0
sVmagicDamageTaken
p3299
I26568
sVtowerKills
p3300
I1
sVtotalTimeCrowdControlDealt
p3301
I873
sVwardsKilled
p3302
I3
sVfirstTowerAssist
p3303
I00
sVwinner
p3304
I00
sVfirstTowerKill
p3305
I00
sVitem2
p3306
I3190
sVitem3
p3307
I3211
sVitem0
p3308
I3143
sVfirstBloodAssist
p3309
I00
sVitem6
p3310
I3364
sVwardsPlaced
p3311
I33
sVitem4
p3312
I3270
sVitem5
p3313
I3725
sVminionsKilled
p3314
I35
sVtripleKills
p3315
I0
sVneutralMinionsKilledEnemyJungle
p3316
I8
sVgoldEarned
p3317
I13262
sVmagicDamageDealt
p3318
I44242
sVkills
p3319
I8
sVdoubleKills
p3320
I0
sVfirstInhibitorKill
p3321
I00
sVtrueDamageTaken
p3322
I1236
sVfirstBloodKill
p3323
I00
sVassists
p3324
I5
sVdeaths
p3325
I9
sVneutralMinionsKilled
p3326
I71
sVcombatPlayerScore
p3327
I0
sVvisionWardsBoughtInGame
p3328
I2
sVphysicalDamageDealtToChampions
p3329
I8955
sVgoldSpent
p3330
I12205
sVtrueDamageDealt
p3331
I27860
sVtrueDamageDealtToChampions
p3332
I419
sVchampLevel
p3333
I16
sVpentaKills
p3334
I0
sVfirstInhibitorAssist
p3335
I00
sVtotalHeal
p3336
I6321
sVphysicalDamageDealt
p3337
I72096
sVlargestCriticalStrike
p3338
I0
sVsightWardsBoughtInGame
p3339
I4
sVtotalDamageDealtToChampions
p3340
I12573
sVtotalUnitsHealed
p3341
I1
sVinhibitorKills
p3342
I0
sVtotalScoreRank
p3343
I0
sVtotalDamageTaken
p3344
I52565
sVkillingSprees
p3345
I2
sVphysicalDamageTaken
p3346
I24760
ssa(dp3347
Vspell1Id
p3348
I4
sVchampionId
p3349
I8
sVparticipantId
p3350
I8
sVrunes
p3351
(lp3352
(dp3353
VruneId
p3354
I5295
sVrank
p3355
I9
sa(dp3356
VruneId
p3357
I5316
sVrank
p3358
I9
sa(dp3359
VruneId
p3360
I5357
sVrank
p3361
I3
sa(dp3362
VruneId
p3363
I5402
sVrank
p3364
I9
sasVhighestAchievedSeasonTier
p3365
VGOLD
p3366
sVteamId
p3367
I200
sVspell2Id
p3368
I12
sVmasteries
p3369
(lp3370
(dp3371
VmasteryId
p3372
I4113
sVrank
p3373
I3
sa(dp3374
VmasteryId
p3375
I4114
sVrank
p3376
I1
sa(dp3377
VmasteryId
p3378
I4123
sVrank
p3379
I3
sa(dp3380
VmasteryId
p3381
I4124
sVrank
p3382
I1
sa(dp3383
VmasteryId
p3384
I4133
sVrank
p3385
I1
sa(dp3386
VmasteryId
p3387
I4134
sVrank
p3388
I3
sa(dp3389
VmasteryId
p3390
I4143
sVrank
p3391
I3
sa(dp3392
VmasteryId
p3393
I4144
sVrank
p3394
I1
sa(dp3395
VmasteryId
p3396
I4152
sVrank
p3397
I3
sa(dp3398
VmasteryId
p3399
I4154
sVrank
p3400
I1
sa(dp3401
VmasteryId
p3402
I4162
sVrank
p3403
I1
sa(dp3404
VmasteryId
p3405
I4211
sVrank
p3406
I2
sa(dp3407
VmasteryId
p3408
I4212
sVrank
p3409
I2
sa(dp3410
VmasteryId
p3411
I4221
sVrank
p3412
I1
sa(dp3413
VmasteryId
p3414
I4222
sVrank
p3415
I3
sa(dp3416
VmasteryId
p3417
I4232
sVrank
p3418
I1
sasVtimeline
p3419
(dp3420
Vlane
p3421
VTOP
p3422
sVcsDiffPerMinDeltas
p3423
(dp3424
VthirtyToEnd
p3425
F0.7
sVtwentyToThirty
p3426
F1.4
sVzeroToTen
p3427
F-0.3999999999999997
sVtenToTwenty
p3428
F1.8000000000000003
ssVgoldPerMinDeltas
p3429
(dp3430
VthirtyToEnd
p3431
F405.2
sVtwentyToThirty
p3432
F331.8
sVzeroToTen
p3433
F196.9
sVtenToTwenty
p3434
F294.3
ssVxpDiffPerMinDeltas
p3435
(dp3436
VthirtyToEnd
p3437
F-45.19999999999999
sVtwentyToThirty
p3438
F-39.599999999999994
sVzeroToTen
p3439
F-98.4
sVtenToTwenty
p3440
F37.30000000000001
ssVcreepsPerMinDeltas
p3441
(dp3442
VthirtyToEnd
p3443
F5.1
sVtwentyToThirty
p3444
F4.5
sVzeroToTen
p3445
F3.5
sVtenToTwenty
p3446
F6.1
ssVxpPerMinDeltas
p3447
(dp3448
VthirtyToEnd
p3449
F421.5
sVtwentyToThirty
p3450
F382.5
sVzeroToTen
p3451
F324.7
sVtenToTwenty
p3452
F503.0
ssVrole
p3453
VSOLO
p3454
sVdamageTakenDiffPerMinDeltas
p3455
(dp3456
VthirtyToEnd
p3457
F216.70000000000005
sVtwentyToThirty
p3458
F-23.0
sVzeroToTen
p3459
F39.39999999999998
sVtenToTwenty
p3460
F-13.900000000000034
ssVdamageTakenPerMinDeltas
p3461
(dp3462
VthirtyToEnd
p3463
F1302.3000000000002
sVtwentyToThirty
p3464
F737.0
sVzeroToTen
p3465
F455.4
sVtenToTwenty
p3466
F799.7
sssVstats
p3467
(dp3468
VneutralMinionsKilledTeamJungle
p3469
I8
sVtotalPlayerScore
p3470
I0
sVunrealKills
p3471
I0
sVobjectivePlayerScore
p3472
I0
sVtotalDamageDealt
p3473
I197692
sVmagicDamageDealtToChampions
p3474
I24516
sVlargestMultiKill
p3475
I1
sVlargestKillingSpree
p3476
I3
sVitem1
p3477
I3001
sVquadraKills
p3478
I0
sVmagicDamageTaken
p3479
I24021
sVtowerKills
p3480
I0
sVtotalTimeCrowdControlDealt
p3481
I119
sVwardsKilled
p3482
I0
sVfirstTowerAssist
p3483
I00
sVwinner
p3484
I00
sVfirstTowerKill
p3485
I00
sVitem2
p3486
I3255
sVitem3
p3487
I0
sVitem0
p3488
I3152
sVfirstBloodAssist
p3489
I00
sVitem6
p3490
I3340
sVwardsPlaced
p3491
I7
sVitem4
p3492
I3135
sVitem5
p3493
I3157
sVminionsKilled
p3494
I207
sVtripleKills
p3495
I0
sVneutralMinionsKilledEnemyJungle
p3496
I0
sVgoldEarned
p3497
I13890
sVmagicDamageDealt
p3498
I184851
sVkills
p3499
I5
sVdoubleKills
p3500
I0
sVfirstInhibitorKill
p3501
I00
sVtrueDamageTaken
p3502
I1168
sVfirstBloodKill
p3503
I00
sVassists
p3504
I5
sVdeaths
p3505
I11
sVneutralMinionsKilled
p3506
I8
sVcombatPlayerScore
p3507
I0
sVvisionWardsBoughtInGame
p3508
I0
sVphysicalDamageDealtToChampions
p3509
I1434
sVgoldSpent
p3510
I12565
sVtrueDamageDealt
p3511
I0
sVtrueDamageDealtToChampions
p3512
I0
sVchampLevel
p3513
I17
sVpentaKills
p3514
I0
sVfirstInhibitorAssist
p3515
I00
sVtotalHeal
p3516
I15234
sVphysicalDamageDealt
p3517
I12841
sVlargestCriticalStrike
p3518
I0
sVsightWardsBoughtInGame
p3519
I0
sVtotalDamageDealtToChampions
p3520
I25950
sVtotalUnitsHealed
p3521
I1
sVinhibitorKills
p3522
I0
sVtotalScoreRank
p3523
I0
sVtotalDamageTaken
p3524
I39441
sVkillingSprees
p3525
I1
sVphysicalDamageTaken
p3526
I14251
ssa(dp3527
Vspell1Id
p3528
I4
sVchampionId
p3529
I236
sVparticipantId
p3530
I10
sVrunes
p3531
(lp3532
(dp3533
VruneId
p3534
I5245
sVrank
p3535
I9
sa(dp3536
VruneId
p3537
I5277
sVrank
p3538
I4
sa(dp3539
VruneId
p3540
I5289
sVrank
p3541
I5
sa(dp3542
VruneId
p3543
I5317
sVrank
p3544
I9
sa(dp3545
VruneId
p3546
I5337
sVrank
p3547
I3
sasVhighestAchievedSeasonTier
p3548
VGOLD
p3549
sVteamId
p3550
I200
sVspell2Id
p3551
I7
sVmasteries
p3552
(lp3553
(dp3554
VmasteryId
p3555
I4112
sVrank
p3556
I4
sa(dp3557
VmasteryId
p3558
I4114
sVrank
p3559
I1
sa(dp3560
VmasteryId
p3561
I4122
sVrank
p3562
I3
sa(dp3563
VmasteryId
p3564
I4124
sVrank
p3565
I1
sa(dp3566
VmasteryId
p3567
I4131
sVrank
p3568
I1
sa(dp3569
VmasteryId
p3570
I4132
sVrank
p3571
I1
sa(dp3572
VmasteryId
p3573
I4134
sVrank
p3574
I3
sa(dp3575
VmasteryId
p3576
I4142
sVrank
p3577
I1
sa(dp3578
VmasteryId
p3579
I4144
sVrank
p3580
I1
sa(dp3581
VmasteryId
p3582
I4151
sVrank
p3583
I1
sa(dp3584
VmasteryId
p3585
I4152
sVrank
p3586
I3
sa(dp3587
VmasteryId
p3588
I4162
sVrank
p3589
I1
sa(dp3590
VmasteryId
p3591
I4211
sVrank
p3592
I2
sa(dp3593
VmasteryId
p3594
I4212
sVrank
p3595
I2
sa(dp3596
VmasteryId
p3597
I4221
sVrank
p3598
I1
sa(dp3599
VmasteryId
p3600
I4222
sVrank
p3601
I3
sa(dp3602
VmasteryId
p3603
I4232
sVrank
p3604
I1
sasVtimeline
p3605
(dp3606
Vlane
p3607
VBOTTOM
p3608
sVcsDiffPerMinDeltas
p3609
(dp3610
VthirtyToEnd
p3611
F-0.1499999999999999
sVtwentyToThirty
p3612
F1.0
sVzeroToTen
p3613
F0.3999999999999999
sVtenToTwenty
p3614
F-0.7499999999999998
ssVgoldPerMinDeltas
p3615
(dp3616
VthirtyToEnd
p3617
F305.4
sVtwentyToThirty
p3618
F477.5
sVzeroToTen
p3619
F257.0
sVtenToTwenty
p3620
F354.7
ssVxpDiffPerMinDeltas
p3621
(dp3622
VthirtyToEnd
p3623
F-141.4
sVtwentyToThirty
p3624
F1.8499999999999943
sVzeroToTen
p3625
F27.849999999999994
sVtenToTwenty
p3626
F-40.0
ssVcreepsPerMinDeltas
p3627
(dp3628
VthirtyToEnd
p3629
F4.6
sVtwentyToThirty
p3630
F6.4
sVzeroToTen
p3631
F5.6
sVtenToTwenty
p3632
F6.0
ssVxpPerMinDeltas
p3633
(dp3634
VthirtyToEnd
p3635
F349.6
sVtwentyToThirty
p3636
F480.70000000000005
sVzeroToTen
p3637
F256.7
sVtenToTwenty
p3638
F388.6
ssVrole
p3639
VDUO_CARRY
p3640
sVdamageTakenDiffPerMinDeltas
p3641
(dp3642
VthirtyToEnd
p3643
F990.7500000000001
sVtwentyToThirty
p3644
F266.85
sVzeroToTen
p3645
F60.19999999999999
sVtenToTwenty
p3646
F224.00000000000003
ssVdamageTakenPerMinDeltas
p3647
(dp3648
VthirtyToEnd
p3649
F1403.6
sVtwentyToThirty
p3650
F782.3
sVzeroToTen
p3651
F445.7
sVtenToTwenty
p3652
F573.1
sssVstats
p3653
(dp3654
VneutralMinionsKilledTeamJungle
p3655
I15
sVtotalPlayerScore
p3656
I0
sVunrealKills
p3657
I0
sVobjectivePlayerScore
p3658
I0
sVtotalDamageDealt
p3659
I225072
sVmagicDamageDealtToChampions
p3660
I1904
sVlargestMultiKill
p3661
I1
sVlargestKillingSpree
p3662
I0
sVitem1
p3663
I3140
sVquadraKills
p3664
I0
sVmagicDamageTaken
p3665
I19000
sVtowerKills
p3666
I2
sVtotalTimeCrowdControlDealt
p3667
I212
sVwardsKilled
p3668
I6
sVfirstTowerAssist
p3669
I00
sVwinner
p3670
I00
sVfirstTowerKill
p3671
I00
sVitem2
p3672
I3250
sVitem3
p3673
I3087
sVitem0
p3674
I3153
sVfirstBloodAssist
p3675
I00
sVitem6
p3676
I3363
sVwardsPlaced
p3677
I11
sVitem4
p3678
I3031
sVitem5
p3679
I1037
sVminionsKilled
p3680
I243
sVtripleKills
p3681
I0
sVneutralMinionsKilledEnemyJungle
p3682
I2
sVgoldEarned
p3683
I15503
sVmagicDamageDealt
p3684
I22193
sVkills
p3685
I5
sVdoubleKills
p3686
I0
sVfirstInhibitorKill
p3687
I00
sVtrueDamageTaken
p3688
I635
sVfirstBloodKill
p3689
I00
sVassists
p3690
I11
sVdeaths
p3691
I12
sVneutralMinionsKilled
p3692
I17
sVcombatPlayerScore
p3693
I0
sVvisionWardsBoughtInGame
p3694
I4
sVphysicalDamageDealtToChampions
p3695
I29699
sVgoldSpent
p3696
I14480
sVtrueDamageDealt
p3697
I571
sVtrueDamageDealtToChampions
p3698
I211
sVchampLevel
p3699
I17
sVpentaKills
p3700
I0
sVfirstInhibitorAssist
p3701
I00
sVtotalHeal
p3702
I7145
sVphysicalDamageDealt
p3703
I202307
sVlargestCriticalStrike
p3704
I712
sVsightWardsBoughtInGame
p3705
I1
sVtotalDamageDealtToChampions
p3706
I31814
sVtotalUnitsHealed
p3707
I4
sVinhibitorKills
p3708
I0
sVtotalScoreRank
p3709
I0
sVtotalDamageTaken
p3710
I35696
sVkillingSprees
p3711
I0
sVphysicalDamageTaken
p3712
I16060
ssaa(lp3713
(I6
g497
tp3714
a(I7
S'mtS Space'
p3715
tp3716
a(I8
g495
tp3717
a(I10
g499
tp3718
aaa(lp3719
(dp3720
g3
VLegendary Arrived
p3721
sg5
I514572867
sg6
I00
sa(lp3722
(dp3723
Vspell1Id
p3724
I4
sVchampionId
p3725
I64
sVparticipantId
p3726
I1
sVrunes
p3727
(lp3728
(dp3729
VruneId
p3730
I5245
sVrank
p3731
I9
sa(dp3732
VruneId
p3733
I5289
sVrank
p3734
I9
sa(dp3735
VruneId
p3736
I5317
sVrank
p3737
I4
sa(dp3738
VruneId
p3739
I5318
sVrank
p3740
I5
sa(dp3741
VruneId
p3742
I5335
sVrank
p3743
I3
sasVhighestAchievedSeasonTier
p3744
VGOLD
p3745
sVteamId
p3746
I100
sVspell2Id
p3747
I11
sVmasteries
p3748
(lp3749
(dp3750
VmasteryId
p3751
I4111
sVrank
p3752
I1
sa(dp3753
VmasteryId
p3754
I4113
sVrank
p3755
I4
sa(dp3756
VmasteryId
p3757
I4121
sVrank
p3758
I1
sa(dp3759
VmasteryId
p3760
I4122
sVrank
p3761
I3
sa(dp3762
VmasteryId
p3763
I4131
sVrank
p3764
I1
sa(dp3765
VmasteryId
p3766
I4132
sVrank
p3767
I1
sa(dp3768
VmasteryId
p3769
I4134
sVrank
p3770
I3
sa(dp3771
VmasteryId
p3772
I4141
sVrank
p3773
I1
sa(dp3774
VmasteryId
p3775
I4142
sVrank
p3776
I1
sa(dp3777
VmasteryId
p3778
I4144
sVrank
p3779
I1
sa(dp3780
VmasteryId
p3781
I4152
sVrank
p3782
I3
sa(dp3783
VmasteryId
p3784
I4162
sVrank
p3785
I1
sa(dp3786
VmasteryId
p3787
I4211
sVrank
p3788
I2
sa(dp3789
VmasteryId
p3790
I4214
sVrank
p3791
I2
sa(dp3792
VmasteryId
p3793
I4222
sVrank
p3794
I3
sa(dp3795
VmasteryId
p3796
I4224
sVrank
p3797
I1
sa(dp3798
VmasteryId
p3799
I4232
sVrank
p3800
I1
sasVtimeline
p3801
(dp3802
Vlane
p3803
VJUNGLE
p3804
sVgoldPerMinDeltas
p3805
(dp3806
VzeroToTen
p3807
F155.3
sVtenToTwenty
p3808
F311.4
ssVcreepsPerMinDeltas
p3809
(dp3810
VzeroToTen
p3811
F0.5
sVtenToTwenty
p3812
F1.9
ssVxpPerMinDeltas
p3813
(dp3814
VzeroToTen
p3815
F198.3
sVtenToTwenty
p3816
F523.2
ssVrole
p3817
VNONE
p3818
sVdamageTakenPerMinDeltas
p3819
(dp3820
VzeroToTen
p3821
F423.0
sVtenToTwenty
p3822
F1029.1
sssVstats
p3823
(dp3824
VneutralMinionsKilledTeamJungle
p3825
I21
sVtotalPlayerScore
p3826
I0
sVunrealKills
p3827
I0
sVobjectivePlayerScore
p3828
I0
sVtotalDamageDealt
p3829
I45785
sVmagicDamageDealtToChampions
p3830
I626
sVlargestMultiKill
p3831
I1
sVlargestKillingSpree
p3832
I0
sVitem1
p3833
I3102
sVquadraKills
p3834
I0
sVmagicDamageTaken
p3835
I5533
sVtowerKills
p3836
I0
sVtotalTimeCrowdControlDealt
p3837
I166
sVwardsKilled
p3838
I0
sVfirstTowerAssist
p3839
I00
sVwinner
p3840
I00
sVfirstTowerKill
p3841
I00
sVitem2
p3842
I2003
sVitem3
p3843
I1001
sVitem0
p3844
I3714
sVfirstBloodAssist
p3845
I00
sVitem6
p3846
I0
sVwardsPlaced
p3847
I0
sVitem4
p3848
I0
sVitem5
p3849
I0
sVminionsKilled
p3850
I36
sVtripleKills
p3851
I0
sVneutralMinionsKilledEnemyJungle
p3852
I0
sVgoldEarned
p3853
I6230
sVmagicDamageDealt
p3854
I8897
sVkills
p3855
I2
sVdoubleKills
p3856
I0
sVfirstInhibitorKill
p3857
I00
sVtrueDamageTaken
p3858
I790
sVfirstBloodKill
p3859
I00
sVassists
p3860
I5
sVdeaths
p3861
I7
sVneutralMinionsKilled
p3862
I21
sVcombatPlayerScore
p3863
I0
sVvisionWardsBoughtInGame
p3864
I0
sVphysicalDamageDealtToChampions
p3865
I4238
sVgoldSpent
p3866
I5640
sVtrueDamageDealt
p3867
I4536
sVtrueDamageDealtToChampions
p3868
I246
sVchampLevel
p3869
I12
sVpentaKills
p3870
I0
sVfirstInhibitorAssist
p3871
I00
sVtotalHeal
p3872
I649
sVphysicalDamageDealt
p3873
I32351
sVlargestCriticalStrike
p3874
I0
sVsightWardsBoughtInGame
p3875
I0
sVtotalDamageDealtToChampions
p3876
I5110
sVtotalUnitsHealed
p3877
I1
sVinhibitorKills
p3878
I0
sVtotalScoreRank
p3879
I0
sVtotalDamageTaken
p3880
I17609
sVkillingSprees
p3881
I0
sVphysicalDamageTaken
p3882
I11285
ssa(dp3883
Vspell1Id
p3884
I4
sVchampionId
p3885
I127
sVparticipantId
p3886
I2
sVrunes
p3887
(lp3888
(dp3889
VruneId
p3890
I5273
sVrank
p3891
I9
sa(dp3892
VruneId
p3893
I5289
sVrank
p3894
I9
sa(dp3895
VruneId
p3896
I5316
sVrank
p3897
I9
sa(dp3898
VruneId
p3899
I5357
sVrank
p3900
I3
sasVhighestAchievedSeasonTier
p3901
VGOLD
p3902
sVteamId
p3903
I100
sVspell2Id
p3904
I3
sVmasteries
p3905
(lp3906
(dp3907
VmasteryId
p3908
I4113
sVrank
p3909
I3
sa(dp3910
VmasteryId
p3911
I4114
sVrank
p3912
I1
sa(dp3913
VmasteryId
p3914
I4123
sVrank
p3915
I3
sa(dp3916
VmasteryId
p3917
I4124
sVrank
p3918
I1
sa(dp3919
VmasteryId
p3920
I4133
sVrank
p3921
I1
sa(dp3922
VmasteryId
p3923
I4134
sVrank
p3924
I3
sa(dp3925
VmasteryId
p3926
I4143
sVrank
p3927
I3
sa(dp3928
VmasteryId
p3929
I4144
sVrank
p3930
I1
sa(dp3931
VmasteryId
p3932
I4152
sVrank
p3933
I3
sa(dp3934
VmasteryId
p3935
I4154
sVrank
p3936
I1
sa(dp3937
VmasteryId
p3938
I4162
sVrank
p3939
I1
sa(dp3940
VmasteryId
p3941
I4312
sVrank
p3942
I3
sa(dp3943
VmasteryId
p3944
I4313
sVrank
p3945
I3
sa(dp3946
VmasteryId
p3947
I4322
sVrank
p3948
I3
sasVtimeline
p3949
(dp3950
Vlane
p3951
VJUNGLE
p3952
sVgoldPerMinDeltas
p3953
(dp3954
VzeroToTen
p3955
F231.1
sVtenToTwenty
p3956
F323.4
ssVcreepsPerMinDeltas
p3957
(dp3958
VzeroToTen
p3959
F4.300000000000001
sVtenToTwenty
p3960
F6.3
ssVxpPerMinDeltas
p3961
(dp3962
VzeroToTen
p3963
F362.2
sVtenToTwenty
p3964
F518.1
ssVrole
p3965
VNONE
p3966
sVdamageTakenPerMinDeltas
p3967
(dp3968
VzeroToTen
p3969
F239.7
sVtenToTwenty
p3970
F718.6
sssVstats
p3971
(dp3972
VneutralMinionsKilledTeamJungle
p3973
I0
sVtotalPlayerScore
p3974
I0
sVunrealKills
p3975
I0
sVobjectivePlayerScore
p3976
I0
sVtotalDamageDealt
p3977
I76701
sVmagicDamageDealtToChampions
p3978
I11765
sVlargestMultiKill
p3979
I1
sVlargestKillingSpree
p3980
I3
sVitem1
p3981
I3090
sVquadraKills
p3982
I0
sVmagicDamageTaken
p3983
I5952
sVtowerKills
p3984
I0
sVtotalTimeCrowdControlDealt
p3985
I198
sVwardsKilled
p3986
I0
sVfirstTowerAssist
p3987
I00
sVwinner
p3988
I00
sVfirstTowerKill
p3989
I00
sVitem2
p3990
I3020
sVitem3
p3991
I3114
sVitem0
p3992
I1056
sVfirstBloodAssist
p3993
I00
sVitem6
p3994
I0
sVwardsPlaced
p3995
I0
sVitem4
p3996
I3108
sVitem5
p3997
I0
sVminionsKilled
p3998
I120
sVtripleKills
p3999
I0
sVneutralMinionsKilledEnemyJungle
p4000
I0
sVgoldEarned
p4001
I6966
sVmagicDamageDealt
p4002
I70795
sVkills
p4003
I4
sVdoubleKills
p4004
I0
sVfirstInhibitorKill
p4005
I00
sVtrueDamageTaken
p4006
I1725
sVfirstBloodKill
p4007
I00
sVassists
p4008
I4
sVdeaths
p4009
I5
sVneutralMinionsKilled
p4010
I0
sVcombatPlayerScore
p4011
I0
sVvisionWardsBoughtInGame
p4012
I0
sVphysicalDamageDealtToChampions
p4013
I1012
sVgoldSpent
p4014
I6670
sVtrueDamageDealt
p4015
I0
sVtrueDamageDealtToChampions
p4016
I0
sVchampLevel
p4017
I13
sVpentaKills
p4018
I0
sVfirstInhibitorAssist
p4019
I00
sVtotalHeal
p4020
I425
sVphysicalDamageDealt
p4021
I5906
sVlargestCriticalStrike
p4022
I0
sVsightWardsBoughtInGame
p4023
I0
sVtotalDamageDealtToChampions
p4024
I12777
sVtotalUnitsHealed
p4025
I1
sVinhibitorKills
p4026
I0
sVtotalScoreRank
p4027
I0
sVtotalDamageTaken
p4028
I12082
sVkillingSprees
p4029
I1
sVphysicalDamageTaken
p4030
I4404
ssa(dp4031
Vspell1Id
p4032
I4
sVchampionId
p4033
I67
sVparticipantId
p4034
I3
sVrunes
p4035
(lp4036
(dp4037
VruneId
p4038
I5245
sVrank
p4039
I9
sa(dp4040
VruneId
p4041
I5289
sVrank
p4042
I9
sa(dp4043
VruneId
p4044
I5317
sVrank
p4045
I9
sa(dp4046
VruneId
p4047
I5335
sVrank
p4048
I1
sa(dp4049
VruneId
p4050
I5337
sVrank
p4051
I2
sasVhighestAchievedSeasonTier
p4052
VGOLD
p4053
sVteamId
p4054
I100
sVspell2Id
p4055
I7
sVmasteries
p4056
(lp4057
(dp4058
VmasteryId
p4059
I4111
sVrank
p4060
I1
sa(dp4061
VmasteryId
p4062
I4112
sVrank
p4063
I4
sa(dp4064
VmasteryId
p4065
I4114
sVrank
p4066
I1
sa(dp4067
VmasteryId
p4068
I4122
sVrank
p4069
I3
sa(dp4070
VmasteryId
p4071
I4124
sVrank
p4072
I1
sa(dp4073
VmasteryId
p4074
I4131
sVrank
p4075
I1
sa(dp4076
VmasteryId
p4077
I4132
sVrank
p4078
I1
sa(dp4079
VmasteryId
p4080
I4141
sVrank
p4081
I1
sa(dp4082
VmasteryId
p4083
I4142
sVrank
p4084
I3
sa(dp4085
VmasteryId
p4086
I4151
sVrank
p4087
I1
sa(dp4088
VmasteryId
p4089
I4152
sVrank
p4090
I3
sa(dp4091
VmasteryId
p4092
I4162
sVrank
p4093
I1
sa(dp4094
VmasteryId
p4095
I4211
sVrank
p4096
I2
sa(dp4097
VmasteryId
p4098
I4212
sVrank
p4099
I2
sa(dp4100
VmasteryId
p4101
I4221
sVrank
p4102
I1
sa(dp4103
VmasteryId
p4104
I4222
sVrank
p4105
I3
sa(dp4106
VmasteryId
p4107
I4232
sVrank
p4108
I1
sasVtimeline
p4109
(dp4110
Vlane
p4111
VJUNGLE
p4112
sVgoldPerMinDeltas
p4113
(dp4114
VzeroToTen
p4115
F182.3
sVtenToTwenty
p4116
F330.0
ssVcreepsPerMinDeltas
p4117
(dp4118
VzeroToTen
p4119
F5.0
sVtenToTwenty
p4120
F5.6
ssVxpPerMinDeltas
p4121
(dp4122
VzeroToTen
p4123
F399.1
sVtenToTwenty
p4124
F473.2
ssVrole
p4125
VNONE
p4126
sVdamageTakenPerMinDeltas
p4127
(dp4128
VzeroToTen
p4129
F244.6
sVtenToTwenty
p4130
F934.1
sssVstats
p4131
(dp4132
VneutralMinionsKilledTeamJungle
p4133
I8
sVtotalPlayerScore
p4134
I0
sVunrealKills
p4135
I0
sVobjectivePlayerScore
p4136
I0
sVtotalDamageDealt
p4137
I67739
sVmagicDamageDealtToChampions
p4138
I0
sVlargestMultiKill
p4139
I1
sVlargestKillingSpree
p4140
I2
sVitem1
p4141
I1055
sVquadraKills
p4142
I0
sVmagicDamageTaken
p4143
I8532
sVtowerKills
p4144
I0
sVtotalTimeCrowdControlDealt
p4145
I14
sVwardsKilled
p4146
I0
sVfirstTowerAssist
p4147
I00
sVwinner
p4148
I00
sVfirstTowerKill
p4149
I00
sVitem2
p4150
I3006
sVitem3
p4151
I1033
sVitem0
p4152
I3153
sVfirstBloodAssist
p4153
I00
sVitem6
p4154
I0
sVwardsPlaced
p4155
I0
sVitem4
p4156
I1042
sVitem5
p4157
I1037
sVminionsKilled
p4158
I123
sVtripleKills
p4159
I0
sVneutralMinionsKilledEnemyJungle
p4160
I0
sVgoldEarned
p4161
I6887
sVmagicDamageDealt
p4162
I0
sVkills
p4163
I3
sVdoubleKills
p4164
I0
sVfirstInhibitorKill
p4165
I00
sVtrueDamageTaken
p4166
I1523
sVfirstBloodKill
p4167
I00
sVassists
p4168
I1
sVdeaths
p4169
I6
sVneutralMinionsKilled
p4170
I8
sVcombatPlayerScore
p4171
I0
sVvisionWardsBoughtInGame
p4172
I0
sVphysicalDamageDealtToChampions
p4173
I5800
sVgoldSpent
p4174
I6605
sVtrueDamageDealt
p4175
I9402
sVtrueDamageDealtToChampions
p4176
I1660
sVchampLevel
p4177
I13
sVpentaKills
p4178
I0
sVfirstInhibitorAssist
p4179
I00
sVtotalHeal
p4180
I1152
sVphysicalDamageDealt
p4181
I58337
sVlargestCriticalStrike
p4182
I146
sVsightWardsBoughtInGame
p4183
I0
sVtotalDamageDealtToChampions
p4184
I7461
sVtotalUnitsHealed
p4185
I3
sVinhibitorKills
p4186
I0
sVtotalScoreRank
p4187
I0
sVtotalDamageTaken
p4188
I16223
sVkillingSprees
p4189
I1
sVphysicalDamageTaken
p4190
I6166
ssaa(lp4191
(I1
g497
tp4192
a(I2
g499
tp4193
a(I3
g495
tp4194
aaa(lp4195
(dp4196
g3
VFoo Fighters Team
p4197
sg5
I514551419
sg6
I00
sa(lp4198
(dp4199
Vspell1Id
p4200
I4
sVchampionId
p4201
I92
sVparticipantId
p4202
I1
sVrunes
p4203
(lp4204
(dp4205
VruneId
p4206
I5253
sVrank
p4207
I9
sa(dp4208
VruneId
p4209
I5295
sVrank
p4210
I9
sa(dp4211
VruneId
p4212
I5317
sVrank
p4213
I9
sa(dp4214
VruneId
p4215
I5335
sVrank
p4216
I3
sasVhighestAchievedSeasonTier
p4217
VGOLD
p4218
sVteamId
p4219
I100
sVspell2Id
p4220
I3
sVmasteries
p4221
(lp4222
(dp4223
VmasteryId
p4224
I4111
sVrank
p4225
I1
sa(dp4226
VmasteryId
p4227
I4112
sVrank
p4228
I4
sa(dp4229
VmasteryId
p4230
I4113
sVrank
p4231
I4
sa(dp4232
VmasteryId
p4233
I4114
sVrank
p4234
I1
sa(dp4235
VmasteryId
p4236
I4121
sVrank
p4237
I1
sa(dp4238
VmasteryId
p4239
I4122
sVrank
p4240
I3
sa(dp4241
VmasteryId
p4242
I4124
sVrank
p4243
I1
sa(dp4244
VmasteryId
p4245
I4131
sVrank
p4246
I1
sa(dp4247
VmasteryId
p4248
I4132
sVrank
p4249
I1
sa(dp4250
VmasteryId
p4251
I4134
sVrank
p4252
I3
sa(dp4253
VmasteryId
p4254
I4141
sVrank
p4255
I1
sa(dp4256
VmasteryId
p4257
I4142
sVrank
p4258
I3
sa(dp4259
VmasteryId
p4260
I4144
sVrank
p4261
I1
sa(dp4262
VmasteryId
p4263
I4151
sVrank
p4264
I1
sa(dp4265
VmasteryId
p4266
I4152
sVrank
p4267
I3
sa(dp4268
VmasteryId
p4269
I4162
sVrank
p4270
I1
sasVtimeline
p4271
(dp4272
Vlane
p4273
VJUNGLE
p4274
sVcsDiffPerMinDeltas
p4275
(dp4276
VzeroToTen
p4277
F4.0
ssVgoldPerMinDeltas
p4278
(dp4279
VzeroToTen
p4280
F232.6
ssVxpDiffPerMinDeltas
p4281
(dp4282
VzeroToTen
p4283
F-11.749999999999972
ssVcreepsPerMinDeltas
p4284
(dp4285
VzeroToTen
p4286
F6.5
ssVxpPerMinDeltas
p4287
(dp4288
VzeroToTen
p4289
F400.9
ssVrole
p4290
VNONE
p4291
sVdamageTakenDiffPerMinDeltas
p4292
(dp4293
VzeroToTen
p4294
F15.249999999999986
ssVdamageTakenPerMinDeltas
p4295
(dp4296
VzeroToTen
p4297
F370.9
sssVstats
p4298
(dp4299
VneutralMinionsKilledTeamJungle
p4300
I0
sVtotalPlayerScore
p4301
I0
sVunrealKills
p4302
I0
sVobjectivePlayerScore
p4303
I0
sVtotalDamageDealt
p4304
I36722
sVmagicDamageDealtToChampions
p4305
I0
sVlargestMultiKill
p4306
I0
sVlargestKillingSpree
p4307
I0
sVitem1
p4308
I0
sVquadraKills
p4309
I0
sVmagicDamageTaken
p4310
I2450
sVtowerKills
p4311
I0
sVtotalTimeCrowdControlDealt
p4312
I30
sVwardsKilled
p4313
I0
sVfirstTowerAssist
p4314
I00
sVwinner
p4315
I00
sVfirstTowerKill
p4316
I00
sVitem2
p4317
I1001
sVitem3
p4318
I0
sVitem0
p4319
I3074
sVfirstBloodAssist
p4320
I00
sVitem6
p4321
I0
sVwardsPlaced
p4322
I0
sVitem4
p4323
I0
sVitem5
p4324
I0
sVminionsKilled
p4325
I90
sVtripleKills
p4326
I0
sVneutralMinionsKilledEnemyJungle
p4327
I1
sVgoldEarned
p4328
I4251
sVmagicDamageDealt
p4329
I0
sVkills
p4330
I0
sVdoubleKills
p4331
I0
sVfirstInhibitorKill
p4332
I00
sVtrueDamageTaken
p4333
I60
sVfirstBloodKill
p4334
I00
sVassists
p4335
I1
sVdeaths
p4336
I5
sVneutralMinionsKilled
p4337
I1
sVcombatPlayerScore
p4338
I0
sVvisionWardsBoughtInGame
p4339
I0
sVphysicalDamageDealtToChampions
p4340
I4126
sVgoldSpent
p4341
I3800
sVtrueDamageDealt
p4342
I0
sVtrueDamageDealtToChampions
p4343
I0
sVchampLevel
p4344
I9
sVpentaKills
p4345
I0
sVfirstInhibitorAssist
p4346
I00
sVtotalHeal
p4347
I208
sVphysicalDamageDealt
p4348
I36722
sVlargestCriticalStrike
p4349
I0
sVsightWardsBoughtInGame
p4350
I0
sVtotalDamageDealtToChampions
p4351
I4126
sVtotalUnitsHealed
p4352
I1
sVinhibitorKills
p4353
I0
sVtotalScoreRank
p4354
I0
sVtotalDamageTaken
p4355
I8075
sVkillingSprees
p4356
I0
sVphysicalDamageTaken
p4357
I5564
ssa(dp4358
Vspell1Id
p4359
I4
sVchampionId
p4360
I24
sVparticipantId
p4361
I2
sVrunes
p4362
(lp4363
(dp4364
VruneId
p4365
I5245
sVrank
p4366
I9
sa(dp4367
VruneId
p4368
I5289
sVrank
p4369
I9
sa(dp4370
VruneId
p4371
I5317
sVrank
p4372
I9
sa(dp4373
VruneId
p4374
I5335
sVrank
p4375
I1
sa(dp4376
VruneId
p4377
I5337
sVrank
p4378
I2
sasVhighestAchievedSeasonTier
p4379
VGOLD
p4380
sVteamId
p4381
I100
sVspell2Id
p4382
I11
sVmasteries
p4383
(lp4384
(dp4385
VmasteryId
p4386
I4111
sVrank
p4387
I1
sa(dp4388
VmasteryId
p4389
I4112
sVrank
p4390
I3
sa(dp4391
VmasteryId
p4392
I4114
sVrank
p4393
I1
sa(dp4394
VmasteryId
p4395
I4121
sVrank
p4396
I1
sa(dp4397
VmasteryId
p4398
I4122
sVrank
p4399
I3
sa(dp4400
VmasteryId
p4401
I4124
sVrank
p4402
I1
sa(dp4403
VmasteryId
p4404
I4131
sVrank
p4405
I1
sa(dp4406
VmasteryId
p4407
I4132
sVrank
p4408
I1
sa(dp4409
VmasteryId
p4410
I4134
sVrank
p4411
I3
sa(dp4412
VmasteryId
p4413
I4141
sVrank
p4414
I1
sa(dp4415
VmasteryId
p4416
I4144
sVrank
p4417
I1
sa(dp4418
VmasteryId
p4419
I4152
sVrank
p4420
I3
sa(dp4421
VmasteryId
p4422
I4162
sVrank
p4423
I1
sa(dp4424
VmasteryId
p4425
I4211
sVrank
p4426
I2
sa(dp4427
VmasteryId
p4428
I4212
sVrank
p4429
I2
sa(dp4430
VmasteryId
p4431
I4221
sVrank
p4432
I1
sa(dp4433
VmasteryId
p4434
I4222
sVrank
p4435
I3
sa(dp4436
VmasteryId
p4437
I4232
sVrank
p4438
I1
sasVtimeline
p4439
(dp4440
Vlane
p4441
VMIDDLE
p4442
sVcsDiffPerMinDeltas
p4443
(dp4444
VzeroToTen
p4445
F-5.9
ssVgoldPerMinDeltas
p4446
(dp4447
VzeroToTen
p4448
F207.4
ssVxpDiffPerMinDeltas
p4449
(dp4450
VzeroToTen
p4451
F-160.90000000000003
ssVcreepsPerMinDeltas
p4452
(dp4453
VzeroToTen
p4454
F0.2
ssVxpPerMinDeltas
p4455
(dp4456
VzeroToTen
p4457
F302.8
ssVrole
p4458
VSOLO
p4459
sVdamageTakenDiffPerMinDeltas
p4460
(dp4461
VzeroToTen
p4462
F302.5
ssVdamageTakenPerMinDeltas
p4463
(dp4464
VzeroToTen
p4465
F690.2
sssVstats
p4466
(dp4467
VneutralMinionsKilledTeamJungle
p4468
I32
sVtotalPlayerScore
p4469
I0
sVunrealKills
p4470
I0
sVobjectivePlayerScore
p4471
I0
sVtotalDamageDealt
p4472
I37937
sVmagicDamageDealtToChampions
p4473
I675
sVlargestMultiKill
p4474
I0
sVlargestKillingSpree
p4475
I0
sVitem1
p4476
I1053
sVquadraKills
p4477
I0
sVmagicDamageTaken
p4478
I2806
sVtowerKills
p4479
I0
sVtotalTimeCrowdControlDealt
p4480
I68
sVwardsKilled
p4481
I0
sVfirstTowerAssist
p4482
I00
sVwinner
p4483
I00
sVfirstTowerKill
p4484
I00
sVitem2
p4485
I0
sVitem3
p4486
I0
sVitem0
p4487
I3717
sVfirstBloodAssist
p4488
I00
sVitem6
p4489
I0
sVwardsPlaced
p4490
I0
sVitem4
p4491
I0
sVitem5
p4492
I2003
sVminionsKilled
p4493
I10
sVtripleKills
p4494
I0
sVneutralMinionsKilledEnemyJungle
p4495
I1
sVgoldEarned
p4496
I3928
sVmagicDamageDealt
p4497
I10548
sVkills
p4498
I0
sVdoubleKills
p4499
I0
sVfirstInhibitorKill
p4500
I00
sVtrueDamageTaken
p4501
I110
sVfirstBloodKill
p4502
I00
sVassists
p4503
I0
sVdeaths
p4504
I4
sVneutralMinionsKilled
p4505
I33
sVcombatPlayerScore
p4506
I0
sVvisionWardsBoughtInGame
p4507
I0
sVphysicalDamageDealtToChampions
p4508
I1381
sVgoldSpent
p4509
I3470
sVtrueDamageDealt
p4510
I4276
sVtrueDamageDealtToChampions
p4511
I96
sVchampLevel
p4512
I8
sVpentaKills
p4513
I0
sVfirstInhibitorAssist
p4514
I00
sVtotalHeal
p4515
I373
sVphysicalDamageDealt
p4516
I23113
sVlargestCriticalStrike
p4517
I0
sVsightWardsBoughtInGame
p4518
I0
sVtotalDamageDealtToChampions
p4519
I2152
sVtotalUnitsHealed
p4520
I1
sVinhibitorKills
p4521
I0
sVtotalScoreRank
p4522
I0
sVtotalDamageTaken
p4523
I11183
sVkillingSprees
p4524
I0
sVphysicalDamageTaken
p4525
I8267
ssa(dp4526
Vspell1Id
p4527
I4
sVchampionId
p4528
I31
sVparticipantId
p4529
I3
sVrunes
p4530
(lp4531
(dp4532
VruneId
p4533
I5273
sVrank
p4534
I9
sa(dp4535
VruneId
p4536
I5289
sVrank
p4537
I9
sa(dp4538
VruneId
p4539
I5316
sVrank
p4540
I9
sa(dp4541
VruneId
p4542
I5357
sVrank
p4543
I3
sasVhighestAchievedSeasonTier
p4544
VGOLD
p4545
sVteamId
p4546
I100
sVspell2Id
p4547
I3
sVmasteries
p4548
(lp4549
(dp4550
VmasteryId
p4551
I4113
sVrank
p4552
I3
sa(dp4553
VmasteryId
p4554
I4114
sVrank
p4555
I1
sa(dp4556
VmasteryId
p4557
I4123
sVrank
p4558
I3
sa(dp4559
VmasteryId
p4560
I4124
sVrank
p4561
I1
sa(dp4562
VmasteryId
p4563
I4133
sVrank
p4564
I1
sa(dp4565
VmasteryId
p4566
I4134
sVrank
p4567
I3
sa(dp4568
VmasteryId
p4569
I4143
sVrank
p4570
I3
sa(dp4571
VmasteryId
p4572
I4144
sVrank
p4573
I1
sa(dp4574
VmasteryId
p4575
I4152
sVrank
p4576
I3
sa(dp4577
VmasteryId
p4578
I4154
sVrank
p4579
I1
sa(dp4580
VmasteryId
p4581
I4162
sVrank
p4582
I1
sa(dp4583
VmasteryId
p4584
I4311
sVrank
p4585
I1
sa(dp4586
VmasteryId
p4587
I4313
sVrank
p4588
I3
sa(dp4589
VmasteryId
p4590
I4322
sVrank
p4591
I3
sa(dp4592
VmasteryId
p4593
I4324
sVrank
p4594
I1
sa(dp4595
VmasteryId
p4596
I4334
sVrank
p4597
I1
sasVtimeline
p4598
(dp4599
Vlane
p4600
VJUNGLE
p4601
sVcsDiffPerMinDeltas
p4602
(dp4603
VzeroToTen
p4604
F4.0
ssVgoldPerMinDeltas
p4605
(dp4606
VzeroToTen
p4607
F281.79999999999995
ssVxpDiffPerMinDeltas
p4608
(dp4609
VzeroToTen
p4610
F-11.749999999999972
ssVcreepsPerMinDeltas
p4611
(dp4612
VzeroToTen
p4613
F6.0
ssVxpPerMinDeltas
p4614
(dp4615
VzeroToTen
p4616
F342.29999999999995
ssVrole
p4617
VNONE
p4618
sVdamageTakenDiffPerMinDeltas
p4619
(dp4620
VzeroToTen
p4621
F15.249999999999986
ssVdamageTakenPerMinDeltas
p4622
(dp4623
VzeroToTen
p4624
F563.6
sssVstats
p4625
(dp4626
VneutralMinionsKilledTeamJungle
p4627
I9
sVtotalPlayerScore
p4628
I0
sVunrealKills
p4629
I0
sVobjectivePlayerScore
p4630
I0
sVtotalDamageDealt
p4631
I47506
sVmagicDamageDealtToChampions
p4632
I3670
sVlargestMultiKill
p4633
I1
sVlargestKillingSpree
p4634
I0
sVitem1
p4635
I1056
sVquadraKills
p4636
I0
sVmagicDamageTaken
p4637
I2220
sVtowerKills
p4638
I0
sVtotalTimeCrowdControlDealt
p4639
I142
sVwardsKilled
p4640
I0
sVfirstTowerAssist
p4641
I00
sVwinner
p4642
I00
sVfirstTowerKill
p4643
I00
sVitem2
p4644
I3027
sVitem3
p4645
I1001
sVitem0
p4646
I1056
sVfirstBloodAssist
p4647
I00
sVitem6
p4648
I0
sVwardsPlaced
p4649
I0
sVitem4
p4650
I1052
sVitem5
p4651
I0
sVminionsKilled
p4652
I81
sVtripleKills
p4653
I0
sVneutralMinionsKilledEnemyJungle
p4654
I0
sVgoldEarned
p4655
I4988
sVmagicDamageDealt
p4656
I35025
sVkills
p4657
I2
sVdoubleKills
p4658
I0
sVfirstInhibitorKill
p4659
I00
sVtrueDamageTaken
p4660
I128
sVfirstBloodKill
p4661
I01
sVassists
p4662
I0
sVdeaths
p4663
I6
sVneutralMinionsKilled
p4664
I9
sVcombatPlayerScore
p4665
I0
sVvisionWardsBoughtInGame
p4666
I0
sVphysicalDamageDealtToChampions
p4667
I331
sVgoldSpent
p4668
I4430
sVtrueDamageDealt
p4669
I4360
sVtrueDamageDealtToChampions
p4670
I1144
sVchampLevel
p4671
I9
sVpentaKills
p4672
I0
sVfirstInhibitorAssist
p4673
I00
sVtotalHeal
p4674
I1761
sVphysicalDamageDealt
p4675
I8121
sVlargestCriticalStrike
p4676
I0
sVsightWardsBoughtInGame
p4677
I0
sVtotalDamageDealtToChampions
p4678
I5145
sVtotalUnitsHealed
p4679
I1
sVinhibitorKills
p4680
I0
sVtotalScoreRank
p4681
I0
sVtotalDamageTaken
p4682
I11076
sVkillingSprees
p4683
I0
sVphysicalDamageTaken
p4684
I8728
ssaa(lp4685
(I1
g497
tp4686
a(I2
g495
tp4687
a(I3
g499
tp4688
aaa(lp4689
(dp4690
S'opposingTeamName'
p4691
VMahzicalixo
p4692
sS'gameId'
p4693
I540424868
sS'result'
p4694
I00
sa(lp4695
(dp4696
Vstats
p4697
(dp4698
Vitem1
p4699
I3047
sVtotalPlayerScore
p4700
I0
sVunrealKills
p4701
I0
sVobjectivePlayerScore
p4702
I0
sVtotalDamageDealt
p4703
I98365
sVmagicDamageDealtToChampions
p4704
I11174
sVlargestMultiKill
p4705
I1
sVlargestKillingSpree
p4706
I2
sVquadraKills
p4707
I0
sVmagicDamageTaken
p4708
I16679
sVtowerKills
p4709
I0
sVtotalTimeCrowdControlDealt
p4710
I649
sVwardsKilled
p4711
I0
sVfirstTowerAssist
p4712
I00
sVneutralMinionsKilledTeamJungle
p4713
I46
sVfirstTowerKill
p4714
I00
sVitem2
p4715
I3708
sVitem3
p4716
I3065
sVitem0
p4717
I3143
sVfirstBloodAssist
p4718
I00
sVitem6
p4719
I0
sVwardsPlaced
p4720
I0
sVitem4
p4721
I0
sVitem5
p4722
I0
sVminionsKilled
p4723
I37
sVtripleKills
p4724
I0
sVneutralMinionsKilledEnemyJungle
p4725
I9
sVgoldEarned
p4726
I9595
sVkillingSprees
p4727
I1
sVmagicDamageDealt
p4728
I68493
sVkills
p4729
I4
sVdoubleKills
p4730
I0
sVfirstInhibitorKill
p4731
I00
sVtrueDamageTaken
p4732
I1000
sVfirstBloodKill
p4733
I00
sVassists
p4734
I3
sVdeaths
p4735
I11
sVneutralMinionsKilled
p4736
I55
sVcombatPlayerScore
p4737
I0
sVvisionWardsBoughtInGame
p4738
I0
sVphysicalDamageDealtToChampions
p4739
I1391
sVgoldSpent
p4740
I9550
sVtrueDamageDealt
p4741
I8934
sVtrueDamageDealtToChampions
p4742
I464
sVchampLevel
p4743
I15
sVpentaKills
p4744
I0
sVfirstInhibitorAssist
p4745
I00
sVtotalHeal
p4746
I4469
sVwinner
p4747
I00
sVlargestCriticalStrike
p4748
I343
sVsightWardsBoughtInGame
p4749
I0
sVtotalDamageDealtToChampions
p4750
I13030
sVtotalUnitsHealed
p4751
I1
sVinhibitorKills
p4752
I0
sVtotalScoreRank
p4753
I0
sVtotalDamageTaken
p4754
I37840
sVphysicalDamageDealt
p4755
I20937
sVphysicalDamageTaken
p4756
I20161
ssVchampionId
p4757
I79
sVparticipantId
p4758
I1
sVrunes
p4759
(lp4760
(dp4761
VruneId
p4762
I5245
sVrank
p4763
I9
sa(dp4764
VruneId
p4765
I5277
sVrank
p4766
I4
sa(dp4767
VruneId
p4768
I5289
sVrank
p4769
I5
sa(dp4770
VruneId
p4771
I5317
sVrank
p4772
I9
sa(dp4773
VruneId
p4774
I5337
sVrank
p4775
I3
sasVhighestAchievedSeasonTier
p4776
VGOLD
p4777
sVmasteries
p4778
(lp4779
(dp4780
VmasteryId
p4781
I4111
sVrank
p4782
I1
sa(dp4783
VmasteryId
p4784
I4113
sVrank
p4785
I4
sa(dp4786
VmasteryId
p4787
I4122
sVrank
p4788
I3
sa(dp4789
VmasteryId
p4790
I4123
sVrank
p4791
I3
sa(dp4792
VmasteryId
p4793
I4132
sVrank
p4794
I1
sa(dp4795
VmasteryId
p4796
I4133
sVrank
p4797
I1
sa(dp4798
VmasteryId
p4799
I4134
sVrank
p4800
I3
sa(dp4801
VmasteryId
p4802
I4144
sVrank
p4803
I1
sa(dp4804
VmasteryId
p4805
I4152
sVrank
p4806
I3
sa(dp4807
VmasteryId
p4808
I4162
sVrank
p4809
I1
sa(dp4810
VmasteryId
p4811
I4211
sVrank
p4812
I2
sa(dp4813
VmasteryId
p4814
I4214
sVrank
p4815
I2
sa(dp4816
VmasteryId
p4817
I4221
sVrank
p4818
I1
sa(dp4819
VmasteryId
p4820
I4222
sVrank
p4821
I3
sa(dp4822
VmasteryId
p4823
I4232
sVrank
p4824
I1
sasVspell2Id
p4825
I11
sVteamId
p4826
I100
sVtimeline
p4827
(dp4828
Vlane
p4829
VMIDDLE
p4830
sVgoldPerMinDeltas
p4831
(dp4832
VtwentyToThirty
p4833
F266.0
sVzeroToTen
p4834
F282.8
sVtenToTwenty
p4835
F284.9
ssVcreepsPerMinDeltas
p4836
(dp4837
VtwentyToThirty
p4838
F2.2
sVzeroToTen
p4839
F0.4
sVtenToTwenty
p4840
F0.8999999999999999
ssVxpPerMinDeltas
p4841
(dp4842
VtwentyToThirty
p4843
F489.0
sVzeroToTen
p4844
F324.9
sVtenToTwenty
p4845
F419.1
ssVrole
p4846
VSOLO
p4847
sVdamageTakenPerMinDeltas
p4848
(dp4849
VtwentyToThirty
p4850
F1653.9
sVzeroToTen
p4851
F722.7
sVtenToTwenty
p4852
F1020.7
sssVspell1Id
p4853
I4
sa(dp4854
Vstats
p4855
(dp4856
Vitem1
p4857
I3104
sVtotalPlayerScore
p4858
I0
sVunrealKills
p4859
I0
sVobjectivePlayerScore
p4860
I0
sVtotalDamageDealt
p4861
I203041
sVmagicDamageDealtToChampions
p4862
I2145
sVlargestMultiKill
p4863
I1
sVlargestKillingSpree
p4864
I2
sVquadraKills
p4865
I0
sVmagicDamageTaken
p4866
I11293
sVtowerKills
p4867
I0
sVtotalTimeCrowdControlDealt
p4868
I167
sVwardsKilled
p4869
I0
sVfirstTowerAssist
p4870
I00
sVneutralMinionsKilledTeamJungle
p4871
I19
sVfirstTowerKill
p4872
I00
sVitem2
p4873
I3006
sVitem3
p4874
I1028
sVitem0
p4875
I3087
sVfirstBloodAssist
p4876
I00
sVitem6
p4877
I0
sVwardsPlaced
p4878
I0
sVitem4
p4879
I3211
sVitem5
p4880
I3143
sVminionsKilled
p4881
I228
sVtripleKills
p4882
I0
sVneutralMinionsKilledEnemyJungle
p4883
I7
sVgoldEarned
p4884
I12139
sVkillingSprees
p4885
I1
sVmagicDamageDealt
p4886
I36271
sVkills
p4887
I4
sVdoubleKills
p4888
I0
sVfirstInhibitorKill
p4889
I00
sVtrueDamageTaken
p4890
I446
sVfirstBloodKill
p4891
I00
sVassists
p4892
I2
sVdeaths
p4893
I10
sVneutralMinionsKilled
p4894
I26
sVcombatPlayerScore
p4895
I0
sVvisionWardsBoughtInGame
p4896
I0
sVphysicalDamageDealtToChampions
p4897
I9191
sVgoldSpent
p4898
I11960
sVtrueDamageDealt
p4899
I0
sVtrueDamageDealtToChampions
p4900
I0
sVchampLevel
p4901
I17
sVpentaKills
p4902
I0
sVfirstInhibitorAssist
p4903
I00
sVtotalHeal
p4904
I220
sVwinner
p4905
I00
sVlargestCriticalStrike
p4906
I479
sVsightWardsBoughtInGame
p4907
I0
sVtotalDamageDealtToChampions
p4908
I11336
sVtotalUnitsHealed
p4909
I1
sVinhibitorKills
p4910
I0
sVtotalScoreRank
p4911
I0
sVtotalDamageTaken
p4912
I26129
sVphysicalDamageDealt
p4913
I166769
sVphysicalDamageTaken
p4914
I14389
ssVchampionId
p4915
I157
sVparticipantId
p4916
I2
sVrunes
p4917
(lp4918
(dp4919
VruneId
p4920
I5247
sVrank
p4921
I8
sa(dp4922
VruneId
p4923
I5251
sVrank
p4924
I1
sa(dp4925
VruneId
p4926
I5289
sVrank
p4927
I9
sa(dp4928
VruneId
p4929
I5316
sVrank
p4930
I9
sa(dp4931
VruneId
p4932
I5412
sVrank
p4933
I3
sasVhighestAchievedSeasonTier
p4934
VGOLD
p4935
sVmasteries
p4936
(lp4937
(dp4938
VmasteryId
p4939
I4111
sVrank
p4940
I1
sa(dp4941
VmasteryId
p4942
I4112
sVrank
p4943
I4
sa(dp4944
VmasteryId
p4945
I4122
sVrank
p4946
I3
sa(dp4947
VmasteryId
p4948
I4131
sVrank
p4949
I1
sa(dp4950
VmasteryId
p4951
I4132
sVrank
p4952
I1
sa(dp4953
VmasteryId
p4954
I4134
sVrank
p4955
I3
sa(dp4956
VmasteryId
p4957
I4141
sVrank
p4958
I1
sa(dp4959
VmasteryId
p4960
I4142
sVrank
p4961
I3
sa(dp4962
VmasteryId
p4963
I4151
sVrank
p4964
I1
sa(dp4965
VmasteryId
p4966
I4152
sVrank
p4967
I2
sa(dp4968
VmasteryId
p4969
I4162
sVrank
p4970
I1
sa(dp4971
VmasteryId
p4972
I4211
sVrank
p4973
I2
sa(dp4974
VmasteryId
p4975
I4212
sVrank
p4976
I2
sa(dp4977
VmasteryId
p4978
I4221
sVrank
p4979
I1
sa(dp4980
VmasteryId
p4981
I4222
sVrank
p4982
I3
sa(dp4983
VmasteryId
p4984
I4232
sVrank
p4985
I1
sasVspell2Id
p4986
I3
sVteamId
p4987
I100
sVtimeline
p4988
(dp4989
Vlane
p4990
VJUNGLE
p4991
sVgoldPerMinDeltas
p4992
(dp4993
VtwentyToThirty
p4994
F421.3
sVzeroToTen
p4995
F285.3
sVtenToTwenty
p4996
F351.29999999999995
ssVcreepsPerMinDeltas
p4997
(dp4998
VtwentyToThirty
p4999
F8.2
sVzeroToTen
p5000
F5.8
sVtenToTwenty
p5001
F7.3
ssVxpPerMinDeltas
p5002
(dp5003
VtwentyToThirty
p5004
F663.5
sVzeroToTen
p5005
F442.20000000000005
sVtenToTwenty
p5006
F520.1
ssVrole
p5007
VNONE
p5008
sVdamageTakenPerMinDeltas
p5009
(dp5010
VtwentyToThirty
p5011
F1112.3
sVzeroToTen
p5012
F375.3
sVtenToTwenty
p5013
F748.5999999999999
sssVspell1Id
p5014
I4
sa(dp5015
Vstats
p5016
(dp5017
Vitem1
p5018
I3090
sVtotalPlayerScore
p5019
I0
sVunrealKills
p5020
I0
sVobjectivePlayerScore
p5021
I0
sVtotalDamageDealt
p5022
I164055
sVmagicDamageDealtToChampions
p5023
I14853
sVlargestMultiKill
p5024
I1
sVlargestKillingSpree
p5025
I0
sVquadraKills
p5026
I0
sVmagicDamageTaken
p5027
I17650
sVtowerKills
p5028
I0
sVtotalTimeCrowdControlDealt
p5029
I347
sVwardsKilled
p5030
I0
sVfirstTowerAssist
p5031
I00
sVneutralMinionsKilledTeamJungle
p5032
I6
sVfirstTowerKill
p5033
I00
sVitem2
p5034
I3027
sVitem3
p5035
I3020
sVitem0
p5036
I1056
sVfirstBloodAssist
p5037
I00
sVitem6
p5038
I0
sVwardsPlaced
p5039
I0
sVitem4
p5040
I3135
sVitem5
p5041
I1026
sVminionsKilled
p5042
I228
sVtripleKills
p5043
I0
sVneutralMinionsKilledEnemyJungle
p5044
I3
sVgoldEarned
p5045
I12199
sVkillingSprees
p5046
I0
sVmagicDamageDealt
p5047
I139832
sVkills
p5048
I3
sVdoubleKills
p5049
I0
sVfirstInhibitorKill
p5050
I00
sVtrueDamageTaken
p5051
I224
sVfirstBloodKill
p5052
I00
sVassists
p5053
I8
sVdeaths
p5054
I10
sVneutralMinionsKilled
p5055
I9
sVcombatPlayerScore
p5056
I0
sVvisionWardsBoughtInGame
p5057
I0
sVphysicalDamageDealtToChampions
p5058
I1162
sVgoldSpent
p5059
I11625
sVtrueDamageDealt
p5060
I11542
sVtrueDamageDealtToChampions
p5061
I5752
sVchampLevel
p5062
I17
sVpentaKills
p5063
I0
sVfirstInhibitorAssist
p5064
I00
sVtotalHeal
p5065
I3407
sVwinner
p5066
I00
sVlargestCriticalStrike
p5067
I0
sVsightWardsBoughtInGame
p5068
I0
sVtotalDamageDealtToChampions
p5069
I21767
sVtotalUnitsHealed
p5070
I1
sVinhibitorKills
p5071
I0
sVtotalScoreRank
p5072
I0
sVtotalDamageTaken
p5073
I31096
sVphysicalDamageDealt
p5074
I12679
sVphysicalDamageTaken
p5075
I13221
ssVchampionId
p5076
I31
sVparticipantId
p5077
I3
sVrunes
p5078
(lp5079
(dp5080
VruneId
p5081
I5273
sVrank
p5082
I9
sa(dp5083
VruneId
p5084
I5289
sVrank
p5085
I9
sa(dp5086
VruneId
p5087
I5316
sVrank
p5088
I9
sa(dp5089
VruneId
p5090
I5357
sVrank
p5091
I3
sasVhighestAchievedSeasonTier
p5092
VGOLD
p5093
sVmasteries
p5094
(lp5095
(dp5096
VmasteryId
p5097
I4113
sVrank
p5098
I4
sa(dp5099
VmasteryId
p5100
I4114
sVrank
p5101
I1
sa(dp5102
VmasteryId
p5103
I4123
sVrank
p5104
I3
sa(dp5105
VmasteryId
p5106
I4124
sVrank
p5107
I1
sa(dp5108
VmasteryId
p5109
I4133
sVrank
p5110
I1
sa(dp5111
VmasteryId
p5112
I4134
sVrank
p5113
I3
sa(dp5114
VmasteryId
p5115
I4143
sVrank
p5116
I3
sa(dp5117
VmasteryId
p5118
I4144
sVrank
p5119
I1
sa(dp5120
VmasteryId
p5121
I4152
sVrank
p5122
I2
sa(dp5123
VmasteryId
p5124
I4154
sVrank
p5125
I1
sa(dp5126
VmasteryId
p5127
I4162
sVrank
p5128
I1
sa(dp5129
VmasteryId
p5130
I4211
sVrank
p5131
I2
sa(dp5132
VmasteryId
p5133
I4212
sVrank
p5134
I2
sa(dp5135
VmasteryId
p5136
I4221
sVrank
p5137
I1
sa(dp5138
VmasteryId
p5139
I4222
sVrank
p5140
I3
sa(dp5141
VmasteryId
p5142
I4232
sVrank
p5143
I1
sasVspell2Id
p5144
I3
sVteamId
p5145
I100
sVtimeline
p5146
(dp5147
Vlane
p5148
VJUNGLE
p5149
sVgoldPerMinDeltas
p5150
(dp5151
VtwentyToThirty
p5152
F335.5
sVzeroToTen
p5153
F289.2
sVtenToTwenty
p5154
F418.5
ssVcreepsPerMinDeltas
p5155
(dp5156
VtwentyToThirty
p5157
F6.7
sVzeroToTen
p5158
F5.800000000000001
sVtenToTwenty
p5159
F8.7
ssVxpPerMinDeltas
p5160
(dp5161
VtwentyToThirty
p5162
F576.7
sVzeroToTen
p5163
F375.5
sVtenToTwenty
p5164
F563.6
ssVrole
p5165
VNONE
p5166
sVdamageTakenPerMinDeltas
p5167
(dp5168
VtwentyToThirty
p5169
F1283.7
sVzeroToTen
p5170
F622.0999999999999
sVtenToTwenty
p5171
F844.5
sssVspell1Id
p5172
I4
saa(lp5173
(I1
S'Alan Space'
p5174
tp5175
a(I2
S'Nathan Space'
p5176
tp5177
a(I3
S'Darlan Space'
p5178
tp5179
aaa.